ARM GAS  C:\Users\terre\AppData\Local\Temp\ccsuDe1N.s 			page 1


   1              		.syntax unified
   2              		.cpu cortex-m4
   3              		.eabi_attribute 27, 1
   4              		.fpu fpv4-sp-d16
   5              		.eabi_attribute 20, 1
   6              		.eabi_attribute 21, 1
   7              		.eabi_attribute 23, 3
   8              		.eabi_attribute 24, 1
   9              		.eabi_attribute 25, 1
  10              		.eabi_attribute 26, 1
  11              		.eabi_attribute 30, 1
  12              		.eabi_attribute 34, 1
  13              		.eabi_attribute 18, 4
  14              		.thumb
  15              		.syntax unified
  16              		.file	"DMA_2.c"
  17              		.text
  18              	.Ltext0:
  19              		.cfi_sections	.debug_frame
  20              		.section	.text.DMA_2_Init,"ax",%progbits
  21              		.align	2
  22              		.global	DMA_2_Init
  23              		.thumb
  24              		.thumb_func
  25              		.type	DMA_2_Init, %function
  26              	DMA_2_Init:
  27              	.LFB235:
  28              		.file 1 "Generated_Source\\PSoC6\\DMA_2.c"
   1:Generated_Source\PSoC6/DMA_2.c **** /***************************************************************************//**
   2:Generated_Source\PSoC6/DMA_2.c **** * \file DMA_2.c
   3:Generated_Source\PSoC6/DMA_2.c **** * \version 2.0
   4:Generated_Source\PSoC6/DMA_2.c **** *
   5:Generated_Source\PSoC6/DMA_2.c **** *  This file provides the source code to the API for the
   6:Generated_Source\PSoC6/DMA_2.c **** *  DMA_2 component.
   7:Generated_Source\PSoC6/DMA_2.c **** *
   8:Generated_Source\PSoC6/DMA_2.c **** ********************************************************************************
   9:Generated_Source\PSoC6/DMA_2.c **** * \copyright
  10:Generated_Source\PSoC6/DMA_2.c **** * Copyright 2016-2017, Cypress Semiconductor Corporation.  All rights reserved.
  11:Generated_Source\PSoC6/DMA_2.c **** * You may use this file only in accordance with the license, terms, conditions,
  12:Generated_Source\PSoC6/DMA_2.c **** * disclaimers, and limitations in the end user license agreement accompanying
  13:Generated_Source\PSoC6/DMA_2.c **** * the software package with which this file was provided.
  14:Generated_Source\PSoC6/DMA_2.c **** *******************************************************************************/
  15:Generated_Source\PSoC6/DMA_2.c **** 
  16:Generated_Source\PSoC6/DMA_2.c **** #include "DMA_2.h"
  17:Generated_Source\PSoC6/DMA_2.c **** 
  18:Generated_Source\PSoC6/DMA_2.c **** #if defined(__cplusplus)
  19:Generated_Source\PSoC6/DMA_2.c **** extern "C" {
  20:Generated_Source\PSoC6/DMA_2.c **** #endif
  21:Generated_Source\PSoC6/DMA_2.c **** 
  22:Generated_Source\PSoC6/DMA_2.c **** /* Generated code */
  23:Generated_Source\PSoC6/DMA_2.c **** const cy_stc_dma_descriptor_config_t DMA_2_Descriptor_1_config =
  24:Generated_Source\PSoC6/DMA_2.c **** {
  25:Generated_Source\PSoC6/DMA_2.c ****     .retrigger       = CY_DMA_RETRIG_IM,
  26:Generated_Source\PSoC6/DMA_2.c ****     .interruptType   = CY_DMA_DESCR,
  27:Generated_Source\PSoC6/DMA_2.c ****     .triggerOutType  = CY_DMA_1ELEMENT,
  28:Generated_Source\PSoC6/DMA_2.c ****     .channelState    = CY_DMA_CHANNEL_ENABLED,
  29:Generated_Source\PSoC6/DMA_2.c ****     .triggerInType   = CY_DMA_1ELEMENT,
ARM GAS  C:\Users\terre\AppData\Local\Temp\ccsuDe1N.s 			page 2


  30:Generated_Source\PSoC6/DMA_2.c ****     .dataSize        = CY_DMA_HALFWORD,
  31:Generated_Source\PSoC6/DMA_2.c ****     .srcTransferSize = CY_DMA_TRANSFER_SIZE_WORD,
  32:Generated_Source\PSoC6/DMA_2.c ****     .dstTransferSize = CY_DMA_TRANSFER_SIZE_DATA,
  33:Generated_Source\PSoC6/DMA_2.c ****     .descriptorType  = CY_DMA_2D_TRANSFER,
  34:Generated_Source\PSoC6/DMA_2.c ****     .srcAddress      = NULL,
  35:Generated_Source\PSoC6/DMA_2.c ****     .dstAddress      = NULL,
  36:Generated_Source\PSoC6/DMA_2.c ****     .srcXincrement   = 0L,
  37:Generated_Source\PSoC6/DMA_2.c ****     .dstXincrement   = 1L,
  38:Generated_Source\PSoC6/DMA_2.c ****     .xCount          = 256UL,
  39:Generated_Source\PSoC6/DMA_2.c ****     .srcYincrement   = 0L,
  40:Generated_Source\PSoC6/DMA_2.c ****     .dstYincrement   = 256L,
  41:Generated_Source\PSoC6/DMA_2.c ****     .yCount          = 2UL,
  42:Generated_Source\PSoC6/DMA_2.c ****     .nextDescriptor  = &DMA_2_Descriptor_2
  43:Generated_Source\PSoC6/DMA_2.c **** };
  44:Generated_Source\PSoC6/DMA_2.c **** 
  45:Generated_Source\PSoC6/DMA_2.c **** cy_stc_dma_descriptor_t DMA_2_Descriptor_1 =
  46:Generated_Source\PSoC6/DMA_2.c **** {
  47:Generated_Source\PSoC6/DMA_2.c ****     .ctl = 0UL,
  48:Generated_Source\PSoC6/DMA_2.c ****     .src = 0UL,
  49:Generated_Source\PSoC6/DMA_2.c ****     .dst = 0UL,
  50:Generated_Source\PSoC6/DMA_2.c ****     .xCtl = 0UL,
  51:Generated_Source\PSoC6/DMA_2.c ****     .yCtl = 0UL,
  52:Generated_Source\PSoC6/DMA_2.c ****     .nextPtr = 0UL
  53:Generated_Source\PSoC6/DMA_2.c **** };
  54:Generated_Source\PSoC6/DMA_2.c **** 
  55:Generated_Source\PSoC6/DMA_2.c **** const cy_stc_dma_descriptor_config_t DMA_2_Descriptor_2_config =
  56:Generated_Source\PSoC6/DMA_2.c **** {
  57:Generated_Source\PSoC6/DMA_2.c ****     .retrigger       = CY_DMA_RETRIG_IM,
  58:Generated_Source\PSoC6/DMA_2.c ****     .interruptType   = CY_DMA_DESCR,
  59:Generated_Source\PSoC6/DMA_2.c ****     .triggerOutType  = CY_DMA_1ELEMENT,
  60:Generated_Source\PSoC6/DMA_2.c ****     .channelState    = CY_DMA_CHANNEL_ENABLED,
  61:Generated_Source\PSoC6/DMA_2.c ****     .triggerInType   = CY_DMA_1ELEMENT,
  62:Generated_Source\PSoC6/DMA_2.c ****     .dataSize        = CY_DMA_HALFWORD,
  63:Generated_Source\PSoC6/DMA_2.c ****     .srcTransferSize = CY_DMA_TRANSFER_SIZE_WORD,
  64:Generated_Source\PSoC6/DMA_2.c ****     .dstTransferSize = CY_DMA_TRANSFER_SIZE_DATA,
  65:Generated_Source\PSoC6/DMA_2.c ****     .descriptorType  = CY_DMA_2D_TRANSFER,
  66:Generated_Source\PSoC6/DMA_2.c ****     .srcAddress      = NULL,
  67:Generated_Source\PSoC6/DMA_2.c ****     .dstAddress      = NULL,
  68:Generated_Source\PSoC6/DMA_2.c ****     .srcXincrement   = 0L,
  69:Generated_Source\PSoC6/DMA_2.c ****     .dstXincrement   = 1L,
  70:Generated_Source\PSoC6/DMA_2.c ****     .xCount          = 256UL,
  71:Generated_Source\PSoC6/DMA_2.c ****     .srcYincrement   = 0L,
  72:Generated_Source\PSoC6/DMA_2.c ****     .dstYincrement   = 256L,
  73:Generated_Source\PSoC6/DMA_2.c ****     .yCount          = 2UL,
  74:Generated_Source\PSoC6/DMA_2.c ****     .nextDescriptor  = &DMA_2_Descriptor_1
  75:Generated_Source\PSoC6/DMA_2.c **** };
  76:Generated_Source\PSoC6/DMA_2.c **** 
  77:Generated_Source\PSoC6/DMA_2.c **** cy_stc_dma_descriptor_t DMA_2_Descriptor_2 =
  78:Generated_Source\PSoC6/DMA_2.c **** {
  79:Generated_Source\PSoC6/DMA_2.c ****     .ctl = 0UL,
  80:Generated_Source\PSoC6/DMA_2.c ****     .src = 0UL,
  81:Generated_Source\PSoC6/DMA_2.c ****     .dst = 0UL,
  82:Generated_Source\PSoC6/DMA_2.c ****     .xCtl = 0UL,
  83:Generated_Source\PSoC6/DMA_2.c ****     .yCtl = 0UL,
  84:Generated_Source\PSoC6/DMA_2.c ****     .nextPtr = 0UL
  85:Generated_Source\PSoC6/DMA_2.c **** };
  86:Generated_Source\PSoC6/DMA_2.c **** 
ARM GAS  C:\Users\terre\AppData\Local\Temp\ccsuDe1N.s 			page 3


  87:Generated_Source\PSoC6/DMA_2.c **** 
  88:Generated_Source\PSoC6/DMA_2.c **** /** DMA_2_initVar indicates whether the DMA_2 
  89:Generated_Source\PSoC6/DMA_2.c **** *  component has been initialized. The variable is initialized to 0 
  90:Generated_Source\PSoC6/DMA_2.c **** *  and set to 1 the first time DMA_2_Start() is called. This allows 
  91:Generated_Source\PSoC6/DMA_2.c **** *  the component to restart without reinitialization after the first 
  92:Generated_Source\PSoC6/DMA_2.c **** *  call to the DMA_2_Start() routine.
  93:Generated_Source\PSoC6/DMA_2.c **** *
  94:Generated_Source\PSoC6/DMA_2.c **** *  If re-initialization of the component is required, then the 
  95:Generated_Source\PSoC6/DMA_2.c **** *  DMA_2_Init() function can be called before the 
  96:Generated_Source\PSoC6/DMA_2.c **** *  DMA_2_Start() or DMA_2_ChEnable() function.
  97:Generated_Source\PSoC6/DMA_2.c **** */
  98:Generated_Source\PSoC6/DMA_2.c **** uint8 DMA_2_initVar = 0u;
  99:Generated_Source\PSoC6/DMA_2.c **** 
 100:Generated_Source\PSoC6/DMA_2.c **** 
 101:Generated_Source\PSoC6/DMA_2.c **** /*******************************************************************************
 102:Generated_Source\PSoC6/DMA_2.c **** * Function Name: DMA_2_Start
 103:Generated_Source\PSoC6/DMA_2.c **** ****************************************************************************//**
 104:Generated_Source\PSoC6/DMA_2.c **** *
 105:Generated_Source\PSoC6/DMA_2.c **** * Based on the settings for descriptor in the customizer this function runs the
 106:Generated_Source\PSoC6/DMA_2.c **** * DMA_Descriptor_Init() and then initializes the channel using
 107:Generated_Source\PSoC6/DMA_2.c **** * DMA_Chnl_Init(). Enables the DMA_2 block using the DMA_Chnl_Enable().
 108:Generated_Source\PSoC6/DMA_2.c **** *  
 109:Generated_Source\PSoC6/DMA_2.c **** *******************************************************************************/
 110:Generated_Source\PSoC6/DMA_2.c **** void DMA_2_Start(void const * srcAddress, void const * dstAddress)
 111:Generated_Source\PSoC6/DMA_2.c **** {
 112:Generated_Source\PSoC6/DMA_2.c ****     if (0U == DMA_2_initVar)
 113:Generated_Source\PSoC6/DMA_2.c ****     {
 114:Generated_Source\PSoC6/DMA_2.c ****         DMA_2_Init();
 115:Generated_Source\PSoC6/DMA_2.c ****         DMA_2_initVar = 1u;
 116:Generated_Source\PSoC6/DMA_2.c ****     }
 117:Generated_Source\PSoC6/DMA_2.c ****     
 118:Generated_Source\PSoC6/DMA_2.c ****     Cy_DMA_Descriptor_SetSrcAddress(&DMA_2_Descriptor_1, srcAddress);
 119:Generated_Source\PSoC6/DMA_2.c ****     Cy_DMA_Descriptor_SetDstAddress(&DMA_2_Descriptor_1, dstAddress);
 120:Generated_Source\PSoC6/DMA_2.c ****     Cy_DMA_Channel_Enable(DMA_2_HW, DMA_2_DW_CHANNEL);
 121:Generated_Source\PSoC6/DMA_2.c **** }
 122:Generated_Source\PSoC6/DMA_2.c **** 
 123:Generated_Source\PSoC6/DMA_2.c **** 
 124:Generated_Source\PSoC6/DMA_2.c **** /*******************************************************************************
 125:Generated_Source\PSoC6/DMA_2.c **** * Function Name: DMA_2_Init
 126:Generated_Source\PSoC6/DMA_2.c **** ****************************************************************************//**
 127:Generated_Source\PSoC6/DMA_2.c **** *
 128:Generated_Source\PSoC6/DMA_2.c **** * Based on the settings for the descriptor in the customizer this function runs the
 129:Generated_Source\PSoC6/DMA_2.c **** * DMA_Descriptor_Init() and then initializes the channel using
 130:Generated_Source\PSoC6/DMA_2.c **** * DMA_Chnl_Init().
 131:Generated_Source\PSoC6/DMA_2.c **** *  
 132:Generated_Source\PSoC6/DMA_2.c **** *******************************************************************************/
 133:Generated_Source\PSoC6/DMA_2.c **** void DMA_2_Init(void)
 134:Generated_Source\PSoC6/DMA_2.c **** {
  29              		.loc 1 134 0
  30              		.cfi_startproc
  31              		@ args = 0, pretend = 0, frame = 16
  32              		@ frame_needed = 0, uses_anonymous_args = 0
  33 0000 30B5     		push	{r4, r5, lr}
  34              		.cfi_def_cfa_offset 12
  35              		.cfi_offset 4, -12
  36              		.cfi_offset 5, -8
  37              		.cfi_offset 14, -4
ARM GAS  C:\Users\terre\AppData\Local\Temp\ccsuDe1N.s 			page 4


  38 0002 85B0     		sub	sp, sp, #20
  39              		.cfi_def_cfa_offset 32
 135:Generated_Source\PSoC6/DMA_2.c ****     cy_stc_dma_channel_config_t channelConfig;
 136:Generated_Source\PSoC6/DMA_2.c **** 
 137:Generated_Source\PSoC6/DMA_2.c ****     /* Init all descriptors */
 138:Generated_Source\PSoC6/DMA_2.c ****     (void)Cy_DMA_Descriptor_Init(&DMA_2_Descriptor_1, &DMA_2_Descriptor_1_config);
  40              		.loc 1 138 0
  41 0004 104D     		ldr	r5, .L3
  42 0006 114C     		ldr	r4, .L3+4
  43 0008 2946     		mov	r1, r5
  44 000a 2046     		mov	r0, r4
  45 000c FFF7FEFF 		bl	Cy_DMA_Descriptor_Init
  46              	.LVL0:
 139:Generated_Source\PSoC6/DMA_2.c ****     (void)Cy_DMA_Descriptor_Init(&DMA_2_Descriptor_2, &DMA_2_Descriptor_2_config);
  47              		.loc 1 139 0
  48 0010 05F13001 		add	r1, r5, #48
  49 0014 04F11800 		add	r0, r4, #24
  50 0018 FFF7FEFF 		bl	Cy_DMA_Descriptor_Init
  51              	.LVL1:
 140:Generated_Source\PSoC6/DMA_2.c **** 
 141:Generated_Source\PSoC6/DMA_2.c **** 
 142:Generated_Source\PSoC6/DMA_2.c ****     channelConfig.descriptor  = &DMA_2_Descriptor_1;
  52              		.loc 1 142 0
  53 001c 0094     		str	r4, [sp]
 143:Generated_Source\PSoC6/DMA_2.c ****     channelConfig.preemptable = DMA_2_PREEMPTABLE;
  54              		.loc 1 143 0
  55 001e 0021     		movs	r1, #0
  56 0020 8DF80410 		strb	r1, [sp, #4]
 144:Generated_Source\PSoC6/DMA_2.c ****     channelConfig.priority    = DMA_2_PRIORITY;
  57              		.loc 1 144 0
  58 0024 0323     		movs	r3, #3
  59 0026 0293     		str	r3, [sp, #8]
 145:Generated_Source\PSoC6/DMA_2.c ****     channelConfig.enable      = false;
  60              		.loc 1 145 0
  61 0028 8DF80C10 		strb	r1, [sp, #12]
 146:Generated_Source\PSoC6/DMA_2.c ****     channelConfig.bufferable  = DMA_2_BUFFERABLE;
  62              		.loc 1 146 0
  63 002c 8DF80D10 		strb	r1, [sp, #13]
 147:Generated_Source\PSoC6/DMA_2.c **** 
 148:Generated_Source\PSoC6/DMA_2.c ****     (void)Cy_DMA_Channel_Init(DMA_2_HW, DMA_2_DW_CHANNEL, &channelConfig);
  64              		.loc 1 148 0
  65 0030 074C     		ldr	r4, .L3+8
  66 0032 6A46     		mov	r2, sp
  67 0034 2046     		mov	r0, r4
  68 0036 FFF7FEFF 		bl	Cy_DMA_Channel_Init
  69              	.LVL2:
  70              	.LBB8:
  71              	.LBB9:
  72              		.file 2 "Generated_Source\\PSoC6\\pdl\\drivers/peripheral/dma/cy_dma.h"
   1:Generated_Source\PSoC6\pdl\drivers/peripheral/dma/cy_dma.h **** /***************************************************************************//**
   2:Generated_Source\PSoC6\pdl\drivers/peripheral/dma/cy_dma.h **** * \file cy_dma.h
   3:Generated_Source\PSoC6\pdl\drivers/peripheral/dma/cy_dma.h **** * \version 2.10
   4:Generated_Source\PSoC6\pdl\drivers/peripheral/dma/cy_dma.h **** *
   5:Generated_Source\PSoC6\pdl\drivers/peripheral/dma/cy_dma.h **** * \brief
   6:Generated_Source\PSoC6\pdl\drivers/peripheral/dma/cy_dma.h **** * The header file of the DMA driver.
   7:Generated_Source\PSoC6\pdl\drivers/peripheral/dma/cy_dma.h **** *
   8:Generated_Source\PSoC6\pdl\drivers/peripheral/dma/cy_dma.h **** ********************************************************************************
ARM GAS  C:\Users\terre\AppData\Local\Temp\ccsuDe1N.s 			page 5


   9:Generated_Source\PSoC6\pdl\drivers/peripheral/dma/cy_dma.h **** * \copyright
  10:Generated_Source\PSoC6\pdl\drivers/peripheral/dma/cy_dma.h **** * Copyright 2016-2018, Cypress Semiconductor Corporation. All rights reserved.
  11:Generated_Source\PSoC6\pdl\drivers/peripheral/dma/cy_dma.h **** * You may use this file only in accordance with the license, terms, conditions,
  12:Generated_Source\PSoC6\pdl\drivers/peripheral/dma/cy_dma.h **** * disclaimers, and limitations in the end user license agreement accompanying
  13:Generated_Source\PSoC6\pdl\drivers/peripheral/dma/cy_dma.h **** * the software package with which this file was provided.
  14:Generated_Source\PSoC6\pdl\drivers/peripheral/dma/cy_dma.h **** *******************************************************************************/
  15:Generated_Source\PSoC6\pdl\drivers/peripheral/dma/cy_dma.h **** 
  16:Generated_Source\PSoC6\pdl\drivers/peripheral/dma/cy_dma.h **** /**
  17:Generated_Source\PSoC6\pdl\drivers/peripheral/dma/cy_dma.h **** * \addtogroup group_dma
  18:Generated_Source\PSoC6\pdl\drivers/peripheral/dma/cy_dma.h **** * \{
  19:Generated_Source\PSoC6\pdl\drivers/peripheral/dma/cy_dma.h **** * Configures a DMA channel and its descriptor(s).
  20:Generated_Source\PSoC6\pdl\drivers/peripheral/dma/cy_dma.h **** *
  21:Generated_Source\PSoC6\pdl\drivers/peripheral/dma/cy_dma.h **** * The functions and other declarations used in this driver are in cy_dma.h. 
  22:Generated_Source\PSoC6\pdl\drivers/peripheral/dma/cy_dma.h **** * You can include cy_pdl.h (ModusToolbox only) to get access to all functions 
  23:Generated_Source\PSoC6\pdl\drivers/peripheral/dma/cy_dma.h **** * and declarations in the PDL.
  24:Generated_Source\PSoC6\pdl\drivers/peripheral/dma/cy_dma.h **** *
  25:Generated_Source\PSoC6\pdl\drivers/peripheral/dma/cy_dma.h **** * The DMA channel can be used in any project to transfer data
  26:Generated_Source\PSoC6\pdl\drivers/peripheral/dma/cy_dma.h **** * without CPU intervention basing on a hardware trigger signal from another component.
  27:Generated_Source\PSoC6\pdl\drivers/peripheral/dma/cy_dma.h **** *
  28:Generated_Source\PSoC6\pdl\drivers/peripheral/dma/cy_dma.h **** * A device may support more than one DMA hardware block. Each block has a set of 
  29:Generated_Source\PSoC6\pdl\drivers/peripheral/dma/cy_dma.h **** * registers, a base hardware address, and supports multiple channels. 
  30:Generated_Source\PSoC6\pdl\drivers/peripheral/dma/cy_dma.h **** * Many API functions for the DMA driver require a base hardware address and  
  31:Generated_Source\PSoC6\pdl\drivers/peripheral/dma/cy_dma.h **** * channel number. Ensure that you use the correct hardware address for the DMA block in use.
  32:Generated_Source\PSoC6\pdl\drivers/peripheral/dma/cy_dma.h **** * 
  33:Generated_Source\PSoC6\pdl\drivers/peripheral/dma/cy_dma.h **** * Features:
  34:Generated_Source\PSoC6\pdl\drivers/peripheral/dma/cy_dma.h **** * * Multiple DW blocks (device specific)
  35:Generated_Source\PSoC6\pdl\drivers/peripheral/dma/cy_dma.h **** * * Multiple channels per each DW block (device specific)
  36:Generated_Source\PSoC6\pdl\drivers/peripheral/dma/cy_dma.h **** * * Four priority levels for each channel
  37:Generated_Source\PSoC6\pdl\drivers/peripheral/dma/cy_dma.h **** * * Byte, half-word (2-byte), and word (4-byte) transfers
  38:Generated_Source\PSoC6\pdl\drivers/peripheral/dma/cy_dma.h **** * * Configurable source and destination addresses
  39:Generated_Source\PSoC6\pdl\drivers/peripheral/dma/cy_dma.h **** * * CRC calculation support (only for CPUSS_ver2)
  40:Generated_Source\PSoC6\pdl\drivers/peripheral/dma/cy_dma.h **** *
  41:Generated_Source\PSoC6\pdl\drivers/peripheral/dma/cy_dma.h **** * \section group_dma_configuration Configuration Considerations
  42:Generated_Source\PSoC6\pdl\drivers/peripheral/dma/cy_dma.h **** *
  43:Generated_Source\PSoC6\pdl\drivers/peripheral/dma/cy_dma.h **** * To set up a DMA driver, initialize a descriptor,
  44:Generated_Source\PSoC6\pdl\drivers/peripheral/dma/cy_dma.h **** * initialize and enable a channel, and enable the DMA block.
  45:Generated_Source\PSoC6\pdl\drivers/peripheral/dma/cy_dma.h **** * 
  46:Generated_Source\PSoC6\pdl\drivers/peripheral/dma/cy_dma.h **** * To set up a descriptor, provide the configuration parameters for the 
  47:Generated_Source\PSoC6\pdl\drivers/peripheral/dma/cy_dma.h **** * descriptor in the \ref cy_stc_dma_descriptor_config_t structure. Then call the 
  48:Generated_Source\PSoC6\pdl\drivers/peripheral/dma/cy_dma.h **** * \ref Cy_DMA_Descriptor_Init function to initialize the descriptor in SRAM. You can 
  49:Generated_Source\PSoC6\pdl\drivers/peripheral/dma/cy_dma.h **** * modify the source and destination addresses dynamically by calling 
  50:Generated_Source\PSoC6\pdl\drivers/peripheral/dma/cy_dma.h **** * \ref Cy_DMA_Descriptor_SetSrcAddress and \ref Cy_DMA_Descriptor_SetDstAddress.
  51:Generated_Source\PSoC6\pdl\drivers/peripheral/dma/cy_dma.h **** * 
  52:Generated_Source\PSoC6\pdl\drivers/peripheral/dma/cy_dma.h **** * To set up a DMA channel, provide a filled \ref cy_stc_dma_channel_config_t 
  53:Generated_Source\PSoC6\pdl\drivers/peripheral/dma/cy_dma.h **** * structure. Call the \ref Cy_DMA_Channel_Init function, specifying the channel
  54:Generated_Source\PSoC6\pdl\drivers/peripheral/dma/cy_dma.h **** * number. Use \ref Cy_DMA_Channel_Enable to enable the configured DMA channel.
  55:Generated_Source\PSoC6\pdl\drivers/peripheral/dma/cy_dma.h **** *
  56:Generated_Source\PSoC6\pdl\drivers/peripheral/dma/cy_dma.h **** * Call \ref Cy_DMA_Channel_Enable for each DMA channel in use.
  57:Generated_Source\PSoC6\pdl\drivers/peripheral/dma/cy_dma.h **** *
  58:Generated_Source\PSoC6\pdl\drivers/peripheral/dma/cy_dma.h **** * When configured, another peripheral typically triggers the DMA. The trigger is
  59:Generated_Source\PSoC6\pdl\drivers/peripheral/dma/cy_dma.h **** * connected to the DMA using the trigger multiplexer. The trigger multiplexer
  60:Generated_Source\PSoC6\pdl\drivers/peripheral/dma/cy_dma.h **** * driver has a software trigger you can use in firmware to trigger the DMA. See the
  61:Generated_Source\PSoC6\pdl\drivers/peripheral/dma/cy_dma.h **** * <a href="group__group__trigmux.html">Trigger Multiplexer</a> documentation.
  62:Generated_Source\PSoC6\pdl\drivers/peripheral/dma/cy_dma.h **** *
  63:Generated_Source\PSoC6\pdl\drivers/peripheral/dma/cy_dma.h **** * The following is a simplified structure of the DMA driver API interdependencies
  64:Generated_Source\PSoC6\pdl\drivers/peripheral/dma/cy_dma.h **** * in a typical user application:
  65:Generated_Source\PSoC6\pdl\drivers/peripheral/dma/cy_dma.h **** * \image html dma.png
ARM GAS  C:\Users\terre\AppData\Local\Temp\ccsuDe1N.s 			page 6


  66:Generated_Source\PSoC6\pdl\drivers/peripheral/dma/cy_dma.h **** *
  67:Generated_Source\PSoC6\pdl\drivers/peripheral/dma/cy_dma.h **** * <B>NOTE:</B> Even if a DMA channel is enabled, it is not operational until 
  68:Generated_Source\PSoC6\pdl\drivers/peripheral/dma/cy_dma.h **** * the DMA block is enabled using function \ref Cy_DMA_Enable.\n
  69:Generated_Source\PSoC6\pdl\drivers/peripheral/dma/cy_dma.h **** * <B>NOTE:</B> If the DMA descriptor is configured to generate an interrupt, 
  70:Generated_Source\PSoC6\pdl\drivers/peripheral/dma/cy_dma.h **** * the interrupt must be enabled using the \ref Cy_DMA_Channel_SetInterruptMask 
  71:Generated_Source\PSoC6\pdl\drivers/peripheral/dma/cy_dma.h **** * function for each DMA channel.
  72:Generated_Source\PSoC6\pdl\drivers/peripheral/dma/cy_dma.h **** *
  73:Generated_Source\PSoC6\pdl\drivers/peripheral/dma/cy_dma.h **** * For example:
  74:Generated_Source\PSoC6\pdl\drivers/peripheral/dma/cy_dma.h **** * \snippet dma\2.10\snippet\main.c snippet_Cy_DMA_Enable
  75:Generated_Source\PSoC6\pdl\drivers/peripheral/dma/cy_dma.h **** * 
  76:Generated_Source\PSoC6\pdl\drivers/peripheral/dma/cy_dma.h **** * \section group_dma_more_information More Information.
  77:Generated_Source\PSoC6\pdl\drivers/peripheral/dma/cy_dma.h **** * See: the DMA chapter of the device technical reference manual (TRM);
  78:Generated_Source\PSoC6\pdl\drivers/peripheral/dma/cy_dma.h **** *      the DMA Component datasheet;
  79:Generated_Source\PSoC6\pdl\drivers/peripheral/dma/cy_dma.h **** *      CE219940 - PSoC 6 MCU Multiple DMA Concatenation.
  80:Generated_Source\PSoC6\pdl\drivers/peripheral/dma/cy_dma.h **** *
  81:Generated_Source\PSoC6\pdl\drivers/peripheral/dma/cy_dma.h **** * \section group_dma_MISRA MISRA-C Compliance
  82:Generated_Source\PSoC6\pdl\drivers/peripheral/dma/cy_dma.h **** * The DMA driver has the following specific deviations:
  83:Generated_Source\PSoC6\pdl\drivers/peripheral/dma/cy_dma.h **** *
  84:Generated_Source\PSoC6\pdl\drivers/peripheral/dma/cy_dma.h **** * <table class="doxtable">
  85:Generated_Source\PSoC6\pdl\drivers/peripheral/dma/cy_dma.h **** *   <tr>
  86:Generated_Source\PSoC6\pdl\drivers/peripheral/dma/cy_dma.h **** *     <th>MISRA Rule</th>
  87:Generated_Source\PSoC6\pdl\drivers/peripheral/dma/cy_dma.h **** *     <th>Rule Class (Required/Advisory)</th>
  88:Generated_Source\PSoC6\pdl\drivers/peripheral/dma/cy_dma.h **** *     <th>Rule Description</th>
  89:Generated_Source\PSoC6\pdl\drivers/peripheral/dma/cy_dma.h **** *     <th>Description of Deviation(s)</th>
  90:Generated_Source\PSoC6\pdl\drivers/peripheral/dma/cy_dma.h **** *   </tr>
  91:Generated_Source\PSoC6\pdl\drivers/peripheral/dma/cy_dma.h **** *   <tr>
  92:Generated_Source\PSoC6\pdl\drivers/peripheral/dma/cy_dma.h **** *     <td>10.3</td>
  93:Generated_Source\PSoC6\pdl\drivers/peripheral/dma/cy_dma.h **** *     <td>R</td>
  94:Generated_Source\PSoC6\pdl\drivers/peripheral/dma/cy_dma.h **** *     <td>A composite expression of the "essentially unsigned" type is being
  95:Generated_Source\PSoC6\pdl\drivers/peripheral/dma/cy_dma.h **** *         cast to a different type category.</td>
  96:Generated_Source\PSoC6\pdl\drivers/peripheral/dma/cy_dma.h **** *     <td>The value got from the bitfield physically cannot exceed the enumeration
  97:Generated_Source\PSoC6\pdl\drivers/peripheral/dma/cy_dma.h **** *         that describes this bitfield. So, the code is safe by design.</td>
  98:Generated_Source\PSoC6\pdl\drivers/peripheral/dma/cy_dma.h **** *   </tr>
  99:Generated_Source\PSoC6\pdl\drivers/peripheral/dma/cy_dma.h **** *   <tr>
 100:Generated_Source\PSoC6\pdl\drivers/peripheral/dma/cy_dma.h **** *     <td>11.4</td>
 101:Generated_Source\PSoC6\pdl\drivers/peripheral/dma/cy_dma.h **** *     <td>A</td>
 102:Generated_Source\PSoC6\pdl\drivers/peripheral/dma/cy_dma.h **** *     <td>A cast should not be performed between a pointer to object type and
 103:Generated_Source\PSoC6\pdl\drivers/peripheral/dma/cy_dma.h **** *         a different pointer to object type.</td>
 104:Generated_Source\PSoC6\pdl\drivers/peripheral/dma/cy_dma.h **** *     <td>This piece of code is written for DW_V2_Type only and it will be never
 105:Generated_Source\PSoC6\pdl\drivers/peripheral/dma/cy_dma.h **** *         executed for DW_V1_Type (which is a default build option for DW_Type).</td>
 106:Generated_Source\PSoC6\pdl\drivers/peripheral/dma/cy_dma.h **** *   </tr>
 107:Generated_Source\PSoC6\pdl\drivers/peripheral/dma/cy_dma.h **** * </table>
 108:Generated_Source\PSoC6\pdl\drivers/peripheral/dma/cy_dma.h **** *
 109:Generated_Source\PSoC6\pdl\drivers/peripheral/dma/cy_dma.h **** * \section group_dma_changelog Changelog
 110:Generated_Source\PSoC6\pdl\drivers/peripheral/dma/cy_dma.h **** *
 111:Generated_Source\PSoC6\pdl\drivers/peripheral/dma/cy_dma.h **** * <table class="doxtable">
 112:Generated_Source\PSoC6\pdl\drivers/peripheral/dma/cy_dma.h **** *   <tr><th>Version</th><th>Changes</th><th>Reason for Change</th></tr>
 113:Generated_Source\PSoC6\pdl\drivers/peripheral/dma/cy_dma.h **** *   <tr>
 114:Generated_Source\PSoC6\pdl\drivers/peripheral/dma/cy_dma.h **** *     <td rowspan="3">2.10</td>
 115:Generated_Source\PSoC6\pdl\drivers/peripheral/dma/cy_dma.h **** *     <td>Flattened the organization of the driver source code into the single source directory and
 116:Generated_Source\PSoC6\pdl\drivers/peripheral/dma/cy_dma.h **** *     <td>Driver library directory-structure simplification.</td>
 117:Generated_Source\PSoC6\pdl\drivers/peripheral/dma/cy_dma.h **** *   </tr>
 118:Generated_Source\PSoC6\pdl\drivers/peripheral/dma/cy_dma.h **** *   <tr>
 119:Generated_Source\PSoC6\pdl\drivers/peripheral/dma/cy_dma.h **** *     <td>Added CRC mode and the CRC descriptor support. \n Added the \ref Cy_DMA_Crc_Init function
 120:Generated_Source\PSoC6\pdl\drivers/peripheral/dma/cy_dma.h **** *     <td>New devices support.</td>
 121:Generated_Source\PSoC6\pdl\drivers/peripheral/dma/cy_dma.h **** *   </tr>
 122:Generated_Source\PSoC6\pdl\drivers/peripheral/dma/cy_dma.h **** *   <tr>
ARM GAS  C:\Users\terre\AppData\Local\Temp\ccsuDe1N.s 			page 7


 123:Generated_Source\PSoC6\pdl\drivers/peripheral/dma/cy_dma.h **** *     <td>Added register access layer. Use register access macros instead
 124:Generated_Source\PSoC6\pdl\drivers/peripheral/dma/cy_dma.h **** *         of direct register access using dereferenced pointers.</td>
 125:Generated_Source\PSoC6\pdl\drivers/peripheral/dma/cy_dma.h **** *     <td>Makes register access device-independent, so that the PDL does 
 126:Generated_Source\PSoC6\pdl\drivers/peripheral/dma/cy_dma.h **** *         not need to be recompiled for each supported part number.</td>
 127:Generated_Source\PSoC6\pdl\drivers/peripheral/dma/cy_dma.h **** *   </tr>
 128:Generated_Source\PSoC6\pdl\drivers/peripheral/dma/cy_dma.h **** *   <tr>
 129:Generated_Source\PSoC6\pdl\drivers/peripheral/dma/cy_dma.h **** *     <td>2.0.1</td>
 130:Generated_Source\PSoC6\pdl\drivers/peripheral/dma/cy_dma.h **** *     <td>Changed CY_DMA_BWC macro values from Boolean to numeric</td>
 131:Generated_Source\PSoC6\pdl\drivers/peripheral/dma/cy_dma.h **** *     <td>Improvements made based on usability feedback</td>
 132:Generated_Source\PSoC6\pdl\drivers/peripheral/dma/cy_dma.h **** *   </tr>
 133:Generated_Source\PSoC6\pdl\drivers/peripheral/dma/cy_dma.h **** *   <tr>
 134:Generated_Source\PSoC6\pdl\drivers/peripheral/dma/cy_dma.h **** *     <td>2.0</td>
 135:Generated_Source\PSoC6\pdl\drivers/peripheral/dma/cy_dma.h **** *     <td> * All the API is refactored to be consistent within itself and with the
 136:Generated_Source\PSoC6\pdl\drivers/peripheral/dma/cy_dma.h **** *            rest of the PDL content.
 137:Generated_Source\PSoC6\pdl\drivers/peripheral/dma/cy_dma.h **** *          * The descriptor API is updated as follows:
 138:Generated_Source\PSoC6\pdl\drivers/peripheral/dma/cy_dma.h **** *            The \ref Cy_DMA_Descriptor_Init function sets a full bunch of descriptor
 139:Generated_Source\PSoC6\pdl\drivers/peripheral/dma/cy_dma.h **** *            settings, and the rest of the descriptor API is a get/set interface
 140:Generated_Source\PSoC6\pdl\drivers/peripheral/dma/cy_dma.h **** *            to each of the descriptor settings.
 141:Generated_Source\PSoC6\pdl\drivers/peripheral/dma/cy_dma.h **** *          * There is a group of macros to support the backward compatibility with most 
 142:Generated_Source\PSoC6\pdl\drivers/peripheral/dma/cy_dma.h **** *            of the driver version 1.0 API. But, you should use
 143:Generated_Source\PSoC6\pdl\drivers/peripheral/dma/cy_dma.h **** *            the new v2.0 interface in new designs (do not just copy-paste from old
 144:Generated_Source\PSoC6\pdl\drivers/peripheral/dma/cy_dma.h **** *            projects). To enable the backward compatibility support, the CY_DMA_BWC 
 145:Generated_Source\PSoC6\pdl\drivers/peripheral/dma/cy_dma.h **** *            definition should be changed to "1".</td>
 146:Generated_Source\PSoC6\pdl\drivers/peripheral/dma/cy_dma.h **** *     <td></td>
 147:Generated_Source\PSoC6\pdl\drivers/peripheral/dma/cy_dma.h **** *   </tr>
 148:Generated_Source\PSoC6\pdl\drivers/peripheral/dma/cy_dma.h **** *   <tr>
 149:Generated_Source\PSoC6\pdl\drivers/peripheral/dma/cy_dma.h **** *     <td>1.0</td>
 150:Generated_Source\PSoC6\pdl\drivers/peripheral/dma/cy_dma.h **** *     <td>Initial version</td>
 151:Generated_Source\PSoC6\pdl\drivers/peripheral/dma/cy_dma.h **** *     <td></td>
 152:Generated_Source\PSoC6\pdl\drivers/peripheral/dma/cy_dma.h **** *   </tr>
 153:Generated_Source\PSoC6\pdl\drivers/peripheral/dma/cy_dma.h **** * </table>
 154:Generated_Source\PSoC6\pdl\drivers/peripheral/dma/cy_dma.h **** *
 155:Generated_Source\PSoC6\pdl\drivers/peripheral/dma/cy_dma.h **** 
 156:Generated_Source\PSoC6\pdl\drivers/peripheral/dma/cy_dma.h **** * \defgroup group_dma_macros Macros
 157:Generated_Source\PSoC6\pdl\drivers/peripheral/dma/cy_dma.h **** * \defgroup group_dma_functions Functions
 158:Generated_Source\PSoC6\pdl\drivers/peripheral/dma/cy_dma.h **** * \{
 159:Generated_Source\PSoC6\pdl\drivers/peripheral/dma/cy_dma.h **** * \defgroup group_dma_block_functions Block Functions
 160:Generated_Source\PSoC6\pdl\drivers/peripheral/dma/cy_dma.h **** * \defgroup group_dma_channel_functions Channel Functions
 161:Generated_Source\PSoC6\pdl\drivers/peripheral/dma/cy_dma.h **** * \defgroup group_dma_descriptor_functions Descriptor Functions
 162:Generated_Source\PSoC6\pdl\drivers/peripheral/dma/cy_dma.h **** * \}
 163:Generated_Source\PSoC6\pdl\drivers/peripheral/dma/cy_dma.h **** * \defgroup group_dma_data_structures Data Structures
 164:Generated_Source\PSoC6\pdl\drivers/peripheral/dma/cy_dma.h **** * \defgroup group_dma_enums Enumerated Types
 165:Generated_Source\PSoC6\pdl\drivers/peripheral/dma/cy_dma.h **** */
 166:Generated_Source\PSoC6\pdl\drivers/peripheral/dma/cy_dma.h **** 
 167:Generated_Source\PSoC6\pdl\drivers/peripheral/dma/cy_dma.h **** #if !defined(CY_DMA_H)
 168:Generated_Source\PSoC6\pdl\drivers/peripheral/dma/cy_dma.h **** #define CY_DMA_H
 169:Generated_Source\PSoC6\pdl\drivers/peripheral/dma/cy_dma.h **** 
 170:Generated_Source\PSoC6\pdl\drivers/peripheral/dma/cy_dma.h **** #include "cy_device.h"
 171:Generated_Source\PSoC6\pdl\drivers/peripheral/dma/cy_dma.h **** #include "cy_device_headers.h"
 172:Generated_Source\PSoC6\pdl\drivers/peripheral/dma/cy_dma.h **** #include "cy_syslib.h"
 173:Generated_Source\PSoC6\pdl\drivers/peripheral/dma/cy_dma.h **** #include <stdint.h>
 174:Generated_Source\PSoC6\pdl\drivers/peripheral/dma/cy_dma.h **** #include <stdbool.h>
 175:Generated_Source\PSoC6\pdl\drivers/peripheral/dma/cy_dma.h **** #include <stddef.h>
 176:Generated_Source\PSoC6\pdl\drivers/peripheral/dma/cy_dma.h **** 
 177:Generated_Source\PSoC6\pdl\drivers/peripheral/dma/cy_dma.h **** #ifdef CY_IP_M4CPUSS_DMA
 178:Generated_Source\PSoC6\pdl\drivers/peripheral/dma/cy_dma.h **** 
 179:Generated_Source\PSoC6\pdl\drivers/peripheral/dma/cy_dma.h **** #if defined(__cplusplus)
ARM GAS  C:\Users\terre\AppData\Local\Temp\ccsuDe1N.s 			page 8


 180:Generated_Source\PSoC6\pdl\drivers/peripheral/dma/cy_dma.h **** extern "C" {
 181:Generated_Source\PSoC6\pdl\drivers/peripheral/dma/cy_dma.h **** #endif
 182:Generated_Source\PSoC6\pdl\drivers/peripheral/dma/cy_dma.h **** 
 183:Generated_Source\PSoC6\pdl\drivers/peripheral/dma/cy_dma.h **** /******************************************************************************
 184:Generated_Source\PSoC6\pdl\drivers/peripheral/dma/cy_dma.h ****  * Macro definitions                                                          *
 185:Generated_Source\PSoC6\pdl\drivers/peripheral/dma/cy_dma.h ****  ******************************************************************************/
 186:Generated_Source\PSoC6\pdl\drivers/peripheral/dma/cy_dma.h **** 
 187:Generated_Source\PSoC6\pdl\drivers/peripheral/dma/cy_dma.h **** /**
 188:Generated_Source\PSoC6\pdl\drivers/peripheral/dma/cy_dma.h **** * \addtogroup group_dma_macros
 189:Generated_Source\PSoC6\pdl\drivers/peripheral/dma/cy_dma.h **** * \{
 190:Generated_Source\PSoC6\pdl\drivers/peripheral/dma/cy_dma.h **** */
 191:Generated_Source\PSoC6\pdl\drivers/peripheral/dma/cy_dma.h **** 
 192:Generated_Source\PSoC6\pdl\drivers/peripheral/dma/cy_dma.h **** /** The driver major version */
 193:Generated_Source\PSoC6\pdl\drivers/peripheral/dma/cy_dma.h **** #define CY_DMA_DRV_VERSION_MAJOR       2
 194:Generated_Source\PSoC6\pdl\drivers/peripheral/dma/cy_dma.h **** 
 195:Generated_Source\PSoC6\pdl\drivers/peripheral/dma/cy_dma.h **** /** The driver minor version */
 196:Generated_Source\PSoC6\pdl\drivers/peripheral/dma/cy_dma.h **** #define CY_DMA_DRV_VERSION_MINOR       10
 197:Generated_Source\PSoC6\pdl\drivers/peripheral/dma/cy_dma.h **** 
 198:Generated_Source\PSoC6\pdl\drivers/peripheral/dma/cy_dma.h **** /** The DMA driver identifier */
 199:Generated_Source\PSoC6\pdl\drivers/peripheral/dma/cy_dma.h **** #define CY_DMA_ID                      (CY_PDL_DRV_ID(0x13U))
 200:Generated_Source\PSoC6\pdl\drivers/peripheral/dma/cy_dma.h ****  
 201:Generated_Source\PSoC6\pdl\drivers/peripheral/dma/cy_dma.h **** /** The DMA channel interrupt mask */
 202:Generated_Source\PSoC6\pdl\drivers/peripheral/dma/cy_dma.h **** #define CY_DMA_INTR_MASK               (0x01UL)
 203:Generated_Source\PSoC6\pdl\drivers/peripheral/dma/cy_dma.h **** 
 204:Generated_Source\PSoC6\pdl\drivers/peripheral/dma/cy_dma.h **** /** The minimum X/Y Count API parameters */
 205:Generated_Source\PSoC6\pdl\drivers/peripheral/dma/cy_dma.h **** #define CY_DMA_LOOP_COUNT_MIN          (1UL)
 206:Generated_Source\PSoC6\pdl\drivers/peripheral/dma/cy_dma.h **** /** The maximum X/Y Count API parameters */
 207:Generated_Source\PSoC6\pdl\drivers/peripheral/dma/cy_dma.h **** #define CY_DMA_LOOP_COUNT_MAX          (256UL)
 208:Generated_Source\PSoC6\pdl\drivers/peripheral/dma/cy_dma.h **** 
 209:Generated_Source\PSoC6\pdl\drivers/peripheral/dma/cy_dma.h **** /** The minimum X/Y Increment API parameters */
 210:Generated_Source\PSoC6\pdl\drivers/peripheral/dma/cy_dma.h **** #define CY_DMA_LOOP_INCREMENT_MIN      (-2048L)
 211:Generated_Source\PSoC6\pdl\drivers/peripheral/dma/cy_dma.h **** /** The maximum X/Y Increment API parameters */
 212:Generated_Source\PSoC6\pdl\drivers/peripheral/dma/cy_dma.h **** #define CY_DMA_LOOP_INCREMENT_MAX      (2047L)
 213:Generated_Source\PSoC6\pdl\drivers/peripheral/dma/cy_dma.h **** 
 214:Generated_Source\PSoC6\pdl\drivers/peripheral/dma/cy_dma.h **** /** The backward compatibility flag. Enables a group of macros which provide 
 215:Generated_Source\PSoC6\pdl\drivers/peripheral/dma/cy_dma.h **** * the backward compatibility with most of the DMA driver version 1.0 interface. */
 216:Generated_Source\PSoC6\pdl\drivers/peripheral/dma/cy_dma.h **** #ifndef CY_DMA_BWC
 217:Generated_Source\PSoC6\pdl\drivers/peripheral/dma/cy_dma.h ****     #define CY_DMA_BWC                 (0U) /* Disabled by default */
 218:Generated_Source\PSoC6\pdl\drivers/peripheral/dma/cy_dma.h **** #endif
 219:Generated_Source\PSoC6\pdl\drivers/peripheral/dma/cy_dma.h **** 
 220:Generated_Source\PSoC6\pdl\drivers/peripheral/dma/cy_dma.h **** /** \} group_dma_macros */
 221:Generated_Source\PSoC6\pdl\drivers/peripheral/dma/cy_dma.h **** 
 222:Generated_Source\PSoC6\pdl\drivers/peripheral/dma/cy_dma.h **** 
 223:Generated_Source\PSoC6\pdl\drivers/peripheral/dma/cy_dma.h **** /**
 224:Generated_Source\PSoC6\pdl\drivers/peripheral/dma/cy_dma.h **** * \addtogroup group_dma_enums
 225:Generated_Source\PSoC6\pdl\drivers/peripheral/dma/cy_dma.h **** * \{
 226:Generated_Source\PSoC6\pdl\drivers/peripheral/dma/cy_dma.h **** */
 227:Generated_Source\PSoC6\pdl\drivers/peripheral/dma/cy_dma.h **** 
 228:Generated_Source\PSoC6\pdl\drivers/peripheral/dma/cy_dma.h **** /** Contains the possible interrupt cause values */
 229:Generated_Source\PSoC6\pdl\drivers/peripheral/dma/cy_dma.h **** typedef enum
 230:Generated_Source\PSoC6\pdl\drivers/peripheral/dma/cy_dma.h **** {
 231:Generated_Source\PSoC6\pdl\drivers/peripheral/dma/cy_dma.h ****     CY_DMA_INTR_CAUSE_NO_INTR            = 0U, /**< No interrupt.                       */
 232:Generated_Source\PSoC6\pdl\drivers/peripheral/dma/cy_dma.h ****     CY_DMA_INTR_CAUSE_COMPLETION         = 1U, /**< Completion.                         */
 233:Generated_Source\PSoC6\pdl\drivers/peripheral/dma/cy_dma.h ****     CY_DMA_INTR_CAUSE_SRC_BUS_ERROR      = 2U, /**< Source bus error.                   */
 234:Generated_Source\PSoC6\pdl\drivers/peripheral/dma/cy_dma.h ****     CY_DMA_INTR_CAUSE_DST_BUS_ERROR      = 3U, /**< Destination bus error.              */
 235:Generated_Source\PSoC6\pdl\drivers/peripheral/dma/cy_dma.h ****     CY_DMA_INTR_CAUSE_SRC_MISAL          = 4U, /**< Source address is not aligned.       */
 236:Generated_Source\PSoC6\pdl\drivers/peripheral/dma/cy_dma.h ****     CY_DMA_INTR_CAUSE_DST_MISAL          = 5U, /**< Destination address is not aligned. */
ARM GAS  C:\Users\terre\AppData\Local\Temp\ccsuDe1N.s 			page 9


 237:Generated_Source\PSoC6\pdl\drivers/peripheral/dma/cy_dma.h ****     CY_DMA_INTR_CAUSE_CURR_PTR_NULL      = 6U, /**< Current descriptor pointer is NULL. */
 238:Generated_Source\PSoC6\pdl\drivers/peripheral/dma/cy_dma.h ****     CY_DMA_INTR_CAUSE_ACTIVE_CH_DISABLED = 7U, /**< Active channel is disabled.         */
 239:Generated_Source\PSoC6\pdl\drivers/peripheral/dma/cy_dma.h ****     CY_DMA_INTR_CAUSE_DESCR_BUS_ERROR    = 8U  /**< Descriptor bus error.               */
 240:Generated_Source\PSoC6\pdl\drivers/peripheral/dma/cy_dma.h **** } cy_en_dma_intr_cause_t;
 241:Generated_Source\PSoC6\pdl\drivers/peripheral/dma/cy_dma.h **** 
 242:Generated_Source\PSoC6\pdl\drivers/peripheral/dma/cy_dma.h **** /** Contains the options for the descriptor type */
 243:Generated_Source\PSoC6\pdl\drivers/peripheral/dma/cy_dma.h **** typedef enum
 244:Generated_Source\PSoC6\pdl\drivers/peripheral/dma/cy_dma.h **** {
 245:Generated_Source\PSoC6\pdl\drivers/peripheral/dma/cy_dma.h ****     CY_DMA_SINGLE_TRANSFER = 0UL,          /**< Single transfer. */
 246:Generated_Source\PSoC6\pdl\drivers/peripheral/dma/cy_dma.h ****     CY_DMA_1D_TRANSFER     = 1UL,          /**< 1D transfer.     */
 247:Generated_Source\PSoC6\pdl\drivers/peripheral/dma/cy_dma.h ****     CY_DMA_2D_TRANSFER     = 2UL,          /**< 2D transfer.     */
 248:Generated_Source\PSoC6\pdl\drivers/peripheral/dma/cy_dma.h ****     CY_DMA_CRC_TRANSFER    = 3UL,          /**< CRC transfer. Supported by the CPUSS_ver2 only. */
 249:Generated_Source\PSoC6\pdl\drivers/peripheral/dma/cy_dma.h **** } cy_en_dma_descriptor_type_t;
 250:Generated_Source\PSoC6\pdl\drivers/peripheral/dma/cy_dma.h **** 
 251:Generated_Source\PSoC6\pdl\drivers/peripheral/dma/cy_dma.h **** /** Contains the options for the interrupt, trig-in and trig-out type parameters of the descriptor 
 252:Generated_Source\PSoC6\pdl\drivers/peripheral/dma/cy_dma.h **** typedef enum
 253:Generated_Source\PSoC6\pdl\drivers/peripheral/dma/cy_dma.h **** {
 254:Generated_Source\PSoC6\pdl\drivers/peripheral/dma/cy_dma.h ****     CY_DMA_1ELEMENT    = 0UL,              /**< One element transfer.             */
 255:Generated_Source\PSoC6\pdl\drivers/peripheral/dma/cy_dma.h ****     CY_DMA_X_LOOP      = 1UL,              /**< One X loop transfer.              */
 256:Generated_Source\PSoC6\pdl\drivers/peripheral/dma/cy_dma.h ****     CY_DMA_DESCR       = 2UL,              /**< One descriptor transfer.          */
 257:Generated_Source\PSoC6\pdl\drivers/peripheral/dma/cy_dma.h ****     CY_DMA_DESCR_CHAIN = 3UL               /**< Entire descriptor chain transfer. */
 258:Generated_Source\PSoC6\pdl\drivers/peripheral/dma/cy_dma.h **** } cy_en_dma_trigger_type_t;
 259:Generated_Source\PSoC6\pdl\drivers/peripheral/dma/cy_dma.h **** 
 260:Generated_Source\PSoC6\pdl\drivers/peripheral/dma/cy_dma.h **** /** Contains the options for the data size */
 261:Generated_Source\PSoC6\pdl\drivers/peripheral/dma/cy_dma.h **** typedef enum
 262:Generated_Source\PSoC6\pdl\drivers/peripheral/dma/cy_dma.h **** {
 263:Generated_Source\PSoC6\pdl\drivers/peripheral/dma/cy_dma.h ****     CY_DMA_BYTE     = 0UL,                 /**< One byte.               */
 264:Generated_Source\PSoC6\pdl\drivers/peripheral/dma/cy_dma.h ****     CY_DMA_HALFWORD = 1UL,                 /**< Half word (two bytes).  */
 265:Generated_Source\PSoC6\pdl\drivers/peripheral/dma/cy_dma.h ****     CY_DMA_WORD     = 2UL                  /**< Full word (four bytes). */
 266:Generated_Source\PSoC6\pdl\drivers/peripheral/dma/cy_dma.h **** } cy_en_dma_data_size_t;
 267:Generated_Source\PSoC6\pdl\drivers/peripheral/dma/cy_dma.h **** 
 268:Generated_Source\PSoC6\pdl\drivers/peripheral/dma/cy_dma.h **** /** Contains the options for descriptor retriggering */
 269:Generated_Source\PSoC6\pdl\drivers/peripheral/dma/cy_dma.h **** typedef enum
 270:Generated_Source\PSoC6\pdl\drivers/peripheral/dma/cy_dma.h **** {
 271:Generated_Source\PSoC6\pdl\drivers/peripheral/dma/cy_dma.h ****     CY_DMA_RETRIG_IM      = 0UL,           /**< Retrigger immediately.              */
 272:Generated_Source\PSoC6\pdl\drivers/peripheral/dma/cy_dma.h ****     CY_DMA_RETRIG_4CYC    = 1UL,           /**< Retrigger after 4 Clk_Slow cycles.  */
 273:Generated_Source\PSoC6\pdl\drivers/peripheral/dma/cy_dma.h ****     CY_DMA_RETRIG_16CYC   = 2UL,           /**< Retrigger after 16 Clk_Slow cycles. */
 274:Generated_Source\PSoC6\pdl\drivers/peripheral/dma/cy_dma.h ****     CY_DMA_WAIT_FOR_REACT = 3UL            /**< Wait for trigger reactivation.      */
 275:Generated_Source\PSoC6\pdl\drivers/peripheral/dma/cy_dma.h **** } cy_en_dma_retrigger_t;
 276:Generated_Source\PSoC6\pdl\drivers/peripheral/dma/cy_dma.h **** 
 277:Generated_Source\PSoC6\pdl\drivers/peripheral/dma/cy_dma.h **** /** Contains the options for the transfer size */
 278:Generated_Source\PSoC6\pdl\drivers/peripheral/dma/cy_dma.h **** typedef enum
 279:Generated_Source\PSoC6\pdl\drivers/peripheral/dma/cy_dma.h **** {
 280:Generated_Source\PSoC6\pdl\drivers/peripheral/dma/cy_dma.h ****     CY_DMA_TRANSFER_SIZE_DATA = 0UL,       /**< As specified by dataSize. */
 281:Generated_Source\PSoC6\pdl\drivers/peripheral/dma/cy_dma.h ****     CY_DMA_TRANSFER_SIZE_WORD = 1UL,       /**< A full word (four bytes). */
 282:Generated_Source\PSoC6\pdl\drivers/peripheral/dma/cy_dma.h **** } cy_en_dma_transfer_size_t;
 283:Generated_Source\PSoC6\pdl\drivers/peripheral/dma/cy_dma.h **** 
 284:Generated_Source\PSoC6\pdl\drivers/peripheral/dma/cy_dma.h **** /** Contains the options for the state of the channel when the descriptor is completed   */
 285:Generated_Source\PSoC6\pdl\drivers/peripheral/dma/cy_dma.h **** typedef enum
 286:Generated_Source\PSoC6\pdl\drivers/peripheral/dma/cy_dma.h **** {
 287:Generated_Source\PSoC6\pdl\drivers/peripheral/dma/cy_dma.h ****     CY_DMA_CHANNEL_ENABLED  = 0UL,         /**< Channel stays enabled. */
 288:Generated_Source\PSoC6\pdl\drivers/peripheral/dma/cy_dma.h ****     CY_DMA_CHANNEL_DISABLED = 1UL          /**< Channel is disabled.   */
 289:Generated_Source\PSoC6\pdl\drivers/peripheral/dma/cy_dma.h **** } cy_en_dma_channel_state_t;
 290:Generated_Source\PSoC6\pdl\drivers/peripheral/dma/cy_dma.h **** 
 291:Generated_Source\PSoC6\pdl\drivers/peripheral/dma/cy_dma.h **** /** Contains the return values of the DMA driver */
 292:Generated_Source\PSoC6\pdl\drivers/peripheral/dma/cy_dma.h **** typedef enum 
 293:Generated_Source\PSoC6\pdl\drivers/peripheral/dma/cy_dma.h **** {
ARM GAS  C:\Users\terre\AppData\Local\Temp\ccsuDe1N.s 			page 10


 294:Generated_Source\PSoC6\pdl\drivers/peripheral/dma/cy_dma.h ****     CY_DMA_SUCCESS   = 0x00UL, /**< Success. */
 295:Generated_Source\PSoC6\pdl\drivers/peripheral/dma/cy_dma.h ****     CY_DMA_BAD_PARAM = CY_DMA_ID | CY_PDL_STATUS_ERROR | 0x01UL /**< The input parameters passed to
 296:Generated_Source\PSoC6\pdl\drivers/peripheral/dma/cy_dma.h **** } cy_en_dma_status_t;
 297:Generated_Source\PSoC6\pdl\drivers/peripheral/dma/cy_dma.h **** 
 298:Generated_Source\PSoC6\pdl\drivers/peripheral/dma/cy_dma.h **** /** \} group_dma_enums */
 299:Generated_Source\PSoC6\pdl\drivers/peripheral/dma/cy_dma.h **** 
 300:Generated_Source\PSoC6\pdl\drivers/peripheral/dma/cy_dma.h **** 
 301:Generated_Source\PSoC6\pdl\drivers/peripheral/dma/cy_dma.h **** /** \cond Internal */
 302:Generated_Source\PSoC6\pdl\drivers/peripheral/dma/cy_dma.h **** 
 303:Generated_Source\PSoC6\pdl\drivers/peripheral/dma/cy_dma.h **** /* Macros for the conditions used by CY_ASSERT calls */
 304:Generated_Source\PSoC6\pdl\drivers/peripheral/dma/cy_dma.h **** #define CY_DMA_IS_LOOP_COUNT_VALID(count)      (((count) >= CY_DMA_LOOP_COUNT_MIN) && ((count) <= C
 305:Generated_Source\PSoC6\pdl\drivers/peripheral/dma/cy_dma.h **** #define CY_DMA_IS_LOOP_INCR_VALID(incr)        (((incr) >= CY_DMA_LOOP_INCREMENT_MIN) && ((incr) <=
 306:Generated_Source\PSoC6\pdl\drivers/peripheral/dma/cy_dma.h **** #define CY_DMA_IS_PRIORITY_VALID(prio)         ((prio) <= 3UL)
 307:Generated_Source\PSoC6\pdl\drivers/peripheral/dma/cy_dma.h **** #define CY_DMA_IS_INTR_MASK_VALID(intr)        (0UL == ((intr) & ((uint32_t) ~CY_DMA_INTR_MASK)))
 308:Generated_Source\PSoC6\pdl\drivers/peripheral/dma/cy_dma.h **** 
 309:Generated_Source\PSoC6\pdl\drivers/peripheral/dma/cy_dma.h **** #define CY_DMA_IS_RETRIG_VALID(retrig)         ((CY_DMA_RETRIG_IM      == (retrig)) || \
 310:Generated_Source\PSoC6\pdl\drivers/peripheral/dma/cy_dma.h ****                                                 (CY_DMA_RETRIG_4CYC    == (retrig)) || \
 311:Generated_Source\PSoC6\pdl\drivers/peripheral/dma/cy_dma.h ****                                                 (CY_DMA_RETRIG_16CYC   == (retrig)) || \
 312:Generated_Source\PSoC6\pdl\drivers/peripheral/dma/cy_dma.h ****                                                 (CY_DMA_WAIT_FOR_REACT == (retrig)))
 313:Generated_Source\PSoC6\pdl\drivers/peripheral/dma/cy_dma.h **** 
 314:Generated_Source\PSoC6\pdl\drivers/peripheral/dma/cy_dma.h **** #define CY_DMA_IS_TRIG_TYPE_VALID(trigType)    ((CY_DMA_1ELEMENT    == (trigType)) || \
 315:Generated_Source\PSoC6\pdl\drivers/peripheral/dma/cy_dma.h ****                                                 (CY_DMA_X_LOOP      == (trigType)) || \
 316:Generated_Source\PSoC6\pdl\drivers/peripheral/dma/cy_dma.h ****                                                 (CY_DMA_DESCR       == (trigType)) || \
 317:Generated_Source\PSoC6\pdl\drivers/peripheral/dma/cy_dma.h ****                                                 (CY_DMA_DESCR_CHAIN == (trigType)))
 318:Generated_Source\PSoC6\pdl\drivers/peripheral/dma/cy_dma.h **** 
 319:Generated_Source\PSoC6\pdl\drivers/peripheral/dma/cy_dma.h **** #define CY_DMA_IS_XFER_SIZE_VALID(xferSize)    ((CY_DMA_TRANSFER_SIZE_DATA == (xferSize)) || \
 320:Generated_Source\PSoC6\pdl\drivers/peripheral/dma/cy_dma.h ****                                                 (CY_DMA_TRANSFER_SIZE_WORD == (xferSize)))
 321:Generated_Source\PSoC6\pdl\drivers/peripheral/dma/cy_dma.h **** 
 322:Generated_Source\PSoC6\pdl\drivers/peripheral/dma/cy_dma.h **** #define CY_DMA_IS_CHANNEL_STATE_VALID(state)   ((CY_DMA_CHANNEL_ENABLED  == (state)) || \
 323:Generated_Source\PSoC6\pdl\drivers/peripheral/dma/cy_dma.h ****                                                 (CY_DMA_CHANNEL_DISABLED == (state)))
 324:Generated_Source\PSoC6\pdl\drivers/peripheral/dma/cy_dma.h **** 
 325:Generated_Source\PSoC6\pdl\drivers/peripheral/dma/cy_dma.h **** #define CY_DMA_IS_DATA_SIZE_VALID(dataSize)    ((CY_DMA_BYTE     == (dataSize)) || \
 326:Generated_Source\PSoC6\pdl\drivers/peripheral/dma/cy_dma.h ****                                                 (CY_DMA_HALFWORD == (dataSize)) || \
 327:Generated_Source\PSoC6\pdl\drivers/peripheral/dma/cy_dma.h ****                                                 (CY_DMA_WORD     == (dataSize)))
 328:Generated_Source\PSoC6\pdl\drivers/peripheral/dma/cy_dma.h **** 
 329:Generated_Source\PSoC6\pdl\drivers/peripheral/dma/cy_dma.h **** #define CY_DMA_IS_TYPE_VALID(descrType)        ((CY_DMA_SINGLE_TRANSFER == (descrType)) || \
 330:Generated_Source\PSoC6\pdl\drivers/peripheral/dma/cy_dma.h ****                                                 (CY_DMA_1D_TRANSFER     == (descrType)) || \
 331:Generated_Source\PSoC6\pdl\drivers/peripheral/dma/cy_dma.h ****                                                 (CY_DMA_2D_TRANSFER     == (descrType)) || \
 332:Generated_Source\PSoC6\pdl\drivers/peripheral/dma/cy_dma.h ****                                                 (CY_DMA_CRC_TRANSFER    == (descrType)))
 333:Generated_Source\PSoC6\pdl\drivers/peripheral/dma/cy_dma.h **** 
 334:Generated_Source\PSoC6\pdl\drivers/peripheral/dma/cy_dma.h **** #define CY_DMA_IS_CH_NR_VALID(chNr)            ((chNr) < CY_DW_CH_NR)
 335:Generated_Source\PSoC6\pdl\drivers/peripheral/dma/cy_dma.h **** 
 336:Generated_Source\PSoC6\pdl\drivers/peripheral/dma/cy_dma.h **** 
 337:Generated_Source\PSoC6\pdl\drivers/peripheral/dma/cy_dma.h **** /* The descriptor structure bit field definitions */
 338:Generated_Source\PSoC6\pdl\drivers/peripheral/dma/cy_dma.h **** #define CY_DMA_CTL_RETRIG_Pos      (0UL)
 339:Generated_Source\PSoC6\pdl\drivers/peripheral/dma/cy_dma.h **** #define CY_DMA_CTL_RETRIG_Msk      ((uint32_t)0x3UL << CY_DMA_CTL_RETRIG_Pos)
 340:Generated_Source\PSoC6\pdl\drivers/peripheral/dma/cy_dma.h **** #define CY_DMA_CTL_INTR_TYPE_Pos   (2UL)
 341:Generated_Source\PSoC6\pdl\drivers/peripheral/dma/cy_dma.h **** #define CY_DMA_CTL_INTR_TYPE_Msk   ((uint32_t)0x3UL << CY_DMA_CTL_INTR_TYPE_Pos)
 342:Generated_Source\PSoC6\pdl\drivers/peripheral/dma/cy_dma.h **** #define CY_DMA_CTL_TR_OUT_TYPE_Pos (4UL)
 343:Generated_Source\PSoC6\pdl\drivers/peripheral/dma/cy_dma.h **** #define CY_DMA_CTL_TR_OUT_TYPE_Msk ((uint32_t)0x3UL << CY_DMA_CTL_TR_OUT_TYPE_Pos)
 344:Generated_Source\PSoC6\pdl\drivers/peripheral/dma/cy_dma.h **** #define CY_DMA_CTL_TR_IN_TYPE_Pos  (6UL)
 345:Generated_Source\PSoC6\pdl\drivers/peripheral/dma/cy_dma.h **** #define CY_DMA_CTL_TR_IN_TYPE_Msk  ((uint32_t)0x3UL << CY_DMA_CTL_TR_IN_TYPE_Pos)
 346:Generated_Source\PSoC6\pdl\drivers/peripheral/dma/cy_dma.h **** #define CY_DMA_CTL_CH_DISABLE_Pos  (24UL)
 347:Generated_Source\PSoC6\pdl\drivers/peripheral/dma/cy_dma.h **** #define CY_DMA_CTL_CH_DISABLE_Msk  ((uint32_t)0x1UL << CY_DMA_CTL_CH_DISABLE_Pos)
 348:Generated_Source\PSoC6\pdl\drivers/peripheral/dma/cy_dma.h **** #define CY_DMA_CTL_SRC_SIZE_Pos    (26UL)
 349:Generated_Source\PSoC6\pdl\drivers/peripheral/dma/cy_dma.h **** #define CY_DMA_CTL_SRC_SIZE_Msk    ((uint32_t)0x1UL << CY_DMA_CTL_SRC_SIZE_Pos)
 350:Generated_Source\PSoC6\pdl\drivers/peripheral/dma/cy_dma.h **** #define CY_DMA_CTL_DST_SIZE_Pos    (27UL)
ARM GAS  C:\Users\terre\AppData\Local\Temp\ccsuDe1N.s 			page 11


 351:Generated_Source\PSoC6\pdl\drivers/peripheral/dma/cy_dma.h **** #define CY_DMA_CTL_DST_SIZE_Msk    ((uint32_t)0x1UL << CY_DMA_CTL_DST_SIZE_Pos)
 352:Generated_Source\PSoC6\pdl\drivers/peripheral/dma/cy_dma.h **** #define CY_DMA_CTL_DATA_SIZE_Pos   (28UL)
 353:Generated_Source\PSoC6\pdl\drivers/peripheral/dma/cy_dma.h **** #define CY_DMA_CTL_DATA_SIZE_Msk   ((uint32_t)0x3UL << CY_DMA_CTL_DATA_SIZE_Pos)
 354:Generated_Source\PSoC6\pdl\drivers/peripheral/dma/cy_dma.h **** #define CY_DMA_CTL_TYPE_Pos        (30UL)
 355:Generated_Source\PSoC6\pdl\drivers/peripheral/dma/cy_dma.h **** #define CY_DMA_CTL_TYPE_Msk        ((uint32_t)0x3UL << CY_DMA_CTL_TYPE_Pos)
 356:Generated_Source\PSoC6\pdl\drivers/peripheral/dma/cy_dma.h **** 
 357:Generated_Source\PSoC6\pdl\drivers/peripheral/dma/cy_dma.h **** #define CY_DMA_CTL_SRC_INCR_Pos    (0UL)
 358:Generated_Source\PSoC6\pdl\drivers/peripheral/dma/cy_dma.h **** #define CY_DMA_CTL_SRC_INCR_Msk    ((uint32_t)0xFFFUL << CY_DMA_CTL_SRC_INCR_Pos)
 359:Generated_Source\PSoC6\pdl\drivers/peripheral/dma/cy_dma.h **** #define CY_DMA_CTL_DST_INCR_Pos    (12UL)
 360:Generated_Source\PSoC6\pdl\drivers/peripheral/dma/cy_dma.h **** #define CY_DMA_CTL_DST_INCR_Msk    ((uint32_t)0xFFFUL << CY_DMA_CTL_DST_INCR_Pos)
 361:Generated_Source\PSoC6\pdl\drivers/peripheral/dma/cy_dma.h **** #define CY_DMA_CTL_COUNT_Pos       (24UL)
 362:Generated_Source\PSoC6\pdl\drivers/peripheral/dma/cy_dma.h **** #define CY_DMA_CTL_COUNT_Msk       ((uint32_t)0xFFUL << CY_DMA_CTL_COUNT_Pos)
 363:Generated_Source\PSoC6\pdl\drivers/peripheral/dma/cy_dma.h **** 
 364:Generated_Source\PSoC6\pdl\drivers/peripheral/dma/cy_dma.h **** /** \endcond */
 365:Generated_Source\PSoC6\pdl\drivers/peripheral/dma/cy_dma.h **** 
 366:Generated_Source\PSoC6\pdl\drivers/peripheral/dma/cy_dma.h **** 
 367:Generated_Source\PSoC6\pdl\drivers/peripheral/dma/cy_dma.h **** /**
 368:Generated_Source\PSoC6\pdl\drivers/peripheral/dma/cy_dma.h **** * \addtogroup group_dma_data_structures
 369:Generated_Source\PSoC6\pdl\drivers/peripheral/dma/cy_dma.h **** * \{
 370:Generated_Source\PSoC6\pdl\drivers/peripheral/dma/cy_dma.h **** */
 371:Generated_Source\PSoC6\pdl\drivers/peripheral/dma/cy_dma.h **** 
 372:Generated_Source\PSoC6\pdl\drivers/peripheral/dma/cy_dma.h **** /** 
 373:Generated_Source\PSoC6\pdl\drivers/peripheral/dma/cy_dma.h **** * DMA descriptor structure type. It is a user/component-declared structure 
 374:Generated_Source\PSoC6\pdl\drivers/peripheral/dma/cy_dma.h **** * allocated in RAM. The DMA HW requires a pointer to this structure to work with it.
 375:Generated_Source\PSoC6\pdl\drivers/peripheral/dma/cy_dma.h **** *
 376:Generated_Source\PSoC6\pdl\drivers/peripheral/dma/cy_dma.h **** * For advanced users: the descriptor can be allocated even in flash, then the user
 377:Generated_Source\PSoC6\pdl\drivers/peripheral/dma/cy_dma.h **** * manually predefines all the structure items with constants. This is 
 378:Generated_Source\PSoC6\pdl\drivers/peripheral/dma/cy_dma.h **** * because most of the driver's API (especially functions modifying
 379:Generated_Source\PSoC6\pdl\drivers/peripheral/dma/cy_dma.h **** * descriptors, including \ref Cy_DMA_Descriptor_Init()) can't work with 
 380:Generated_Source\PSoC6\pdl\drivers/peripheral/dma/cy_dma.h **** * read-only descriptors.
 381:Generated_Source\PSoC6\pdl\drivers/peripheral/dma/cy_dma.h **** */
 382:Generated_Source\PSoC6\pdl\drivers/peripheral/dma/cy_dma.h **** typedef struct
 383:Generated_Source\PSoC6\pdl\drivers/peripheral/dma/cy_dma.h **** {
 384:Generated_Source\PSoC6\pdl\drivers/peripheral/dma/cy_dma.h ****     uint32_t ctl;                    /*!< 0x00000000 Descriptor control */
 385:Generated_Source\PSoC6\pdl\drivers/peripheral/dma/cy_dma.h ****     uint32_t src;                    /*!< 0x00000004 Descriptor source */
 386:Generated_Source\PSoC6\pdl\drivers/peripheral/dma/cy_dma.h ****     uint32_t dst;                    /*!< 0x00000008 Descriptor destination */
 387:Generated_Source\PSoC6\pdl\drivers/peripheral/dma/cy_dma.h ****     uint32_t xCtl;                   /*!< 0x0000000C Descriptor X loop control */
 388:Generated_Source\PSoC6\pdl\drivers/peripheral/dma/cy_dma.h ****     uint32_t yCtl;                   /*!< 0x00000010 Descriptor Y loop control */
 389:Generated_Source\PSoC6\pdl\drivers/peripheral/dma/cy_dma.h ****     uint32_t nextPtr;                /*!< 0x00000014 Descriptor next pointer */
 390:Generated_Source\PSoC6\pdl\drivers/peripheral/dma/cy_dma.h **** } cy_stc_dma_descriptor_t;
 391:Generated_Source\PSoC6\pdl\drivers/peripheral/dma/cy_dma.h **** 
 392:Generated_Source\PSoC6\pdl\drivers/peripheral/dma/cy_dma.h **** /**
 393:Generated_Source\PSoC6\pdl\drivers/peripheral/dma/cy_dma.h **** * This structure is a configuration structure pre-initialized by the user and
 394:Generated_Source\PSoC6\pdl\drivers/peripheral/dma/cy_dma.h **** * passed as a parameter to the \ref Cy_DMA_Descriptor_Init().
 395:Generated_Source\PSoC6\pdl\drivers/peripheral/dma/cy_dma.h **** * It can be allocated in RAM/flash (the user's choice).
 396:Generated_Source\PSoC6\pdl\drivers/peripheral/dma/cy_dma.h **** * In case of flash allocation, there is a possibility to reinitialize the descriptor in runtime.
 397:Generated_Source\PSoC6\pdl\drivers/peripheral/dma/cy_dma.h **** * This structure has all the parameters of the descriptor as separate parameters.
 398:Generated_Source\PSoC6\pdl\drivers/peripheral/dma/cy_dma.h **** * Most of these parameters are represented in the \ref cy_stc_dma_descriptor_t structure as bitfiel
 399:Generated_Source\PSoC6\pdl\drivers/peripheral/dma/cy_dma.h **** */
 400:Generated_Source\PSoC6\pdl\drivers/peripheral/dma/cy_dma.h **** typedef struct
 401:Generated_Source\PSoC6\pdl\drivers/peripheral/dma/cy_dma.h **** {
 402:Generated_Source\PSoC6\pdl\drivers/peripheral/dma/cy_dma.h ****     cy_en_dma_retrigger_t       retrigger;       /**< Specifies whether the DW controller should wa
 403:Generated_Source\PSoC6\pdl\drivers/peripheral/dma/cy_dma.h ****     cy_en_dma_trigger_type_t    interruptType;   /**< Sets the event that triggers an interrupt. Se
 404:Generated_Source\PSoC6\pdl\drivers/peripheral/dma/cy_dma.h ****     cy_en_dma_trigger_type_t    triggerOutType;  /**< Sets the event that triggers an output. See \
 405:Generated_Source\PSoC6\pdl\drivers/peripheral/dma/cy_dma.h ****     cy_en_dma_channel_state_t   channelState;    /**< Specifies whether the channel is enabled or d
 406:Generated_Source\PSoC6\pdl\drivers/peripheral/dma/cy_dma.h ****     cy_en_dma_trigger_type_t    triggerInType;   /**< Sets what type of transfer is triggered. See 
 407:Generated_Source\PSoC6\pdl\drivers/peripheral/dma/cy_dma.h ****     cy_en_dma_data_size_t       dataSize;        /**< The size of the data bus for transfer. See \r
ARM GAS  C:\Users\terre\AppData\Local\Temp\ccsuDe1N.s 			page 12


 408:Generated_Source\PSoC6\pdl\drivers/peripheral/dma/cy_dma.h ****     cy_en_dma_transfer_size_t   srcTransferSize; /**< The source transfer size. */
 409:Generated_Source\PSoC6\pdl\drivers/peripheral/dma/cy_dma.h ****     cy_en_dma_transfer_size_t   dstTransferSize; /**< The destination transfer size. */
 410:Generated_Source\PSoC6\pdl\drivers/peripheral/dma/cy_dma.h ****     cy_en_dma_descriptor_type_t descriptorType;  /**< The type of the descriptor. See \ref cy_en_dm
 411:Generated_Source\PSoC6\pdl\drivers/peripheral/dma/cy_dma.h ****     void *                      srcAddress;      /**< The source address of the transfer. */
 412:Generated_Source\PSoC6\pdl\drivers/peripheral/dma/cy_dma.h ****     void *                      dstAddress;      /**< The destination address of the transfer.
 413:Generated_Source\PSoC6\pdl\drivers/peripheral/dma/cy_dma.h ****                                                    *  For CPUSS_ver2 only: for CRC transfer, the CR
 414:Generated_Source\PSoC6\pdl\drivers/peripheral/dma/cy_dma.h ****                                                    *  (reversing and/or XORing, if used) is placed 
 415:Generated_Source\PSoC6\pdl\drivers/peripheral/dma/cy_dma.h ****                                                    */
 416:Generated_Source\PSoC6\pdl\drivers/peripheral/dma/cy_dma.h ****     int32_t                     srcXincrement;   /**< The address increment of the source after eac
 417:Generated_Source\PSoC6\pdl\drivers/peripheral/dma/cy_dma.h ****     int32_t                     dstXincrement;   /**< The address increment of the destination afte
 418:Generated_Source\PSoC6\pdl\drivers/peripheral/dma/cy_dma.h ****     uint32_t                    xCount;          /**< The number of transfers in an X-loop. Valid r
 419:Generated_Source\PSoC6\pdl\drivers/peripheral/dma/cy_dma.h ****     int32_t                     srcYincrement;   /**< The address increment of the source after eac
 420:Generated_Source\PSoC6\pdl\drivers/peripheral/dma/cy_dma.h ****     int32_t                     dstYincrement;   /**< The address increment of the destination afte
 421:Generated_Source\PSoC6\pdl\drivers/peripheral/dma/cy_dma.h ****     uint32_t                    yCount;          /**< The number of X-loops in the Y-loop. Valid ra
 422:Generated_Source\PSoC6\pdl\drivers/peripheral/dma/cy_dma.h ****     cy_stc_dma_descriptor_t *   nextDescriptor;  /**< The next descriptor to chain after completion
 423:Generated_Source\PSoC6\pdl\drivers/peripheral/dma/cy_dma.h **** } cy_stc_dma_descriptor_config_t;
 424:Generated_Source\PSoC6\pdl\drivers/peripheral/dma/cy_dma.h **** 
 425:Generated_Source\PSoC6\pdl\drivers/peripheral/dma/cy_dma.h **** /** This structure holds the initialization values for the DMA channel */
 426:Generated_Source\PSoC6\pdl\drivers/peripheral/dma/cy_dma.h **** typedef struct
 427:Generated_Source\PSoC6\pdl\drivers/peripheral/dma/cy_dma.h **** {
 428:Generated_Source\PSoC6\pdl\drivers/peripheral/dma/cy_dma.h ****     cy_stc_dma_descriptor_t * descriptor;      /**< The DMA descriptor associated with the channel 
 429:Generated_Source\PSoC6\pdl\drivers/peripheral/dma/cy_dma.h ****     bool     preemptable;                      /**< Specifies whether the channel is preemptable by
 430:Generated_Source\PSoC6\pdl\drivers/peripheral/dma/cy_dma.h ****     uint32_t priority;                         /**< This parameter specifies the channel's priority
 431:Generated_Source\PSoC6\pdl\drivers/peripheral/dma/cy_dma.h ****     bool     enable;                           /**< This parameter specifies whether the channel is
 432:Generated_Source\PSoC6\pdl\drivers/peripheral/dma/cy_dma.h ****     bool     bufferable;                       /**< This parameter specifies whether a write transa
 433:Generated_Source\PSoC6\pdl\drivers/peripheral/dma/cy_dma.h ****                                                     without waiting for the destination to accept t
 434:Generated_Source\PSoC6\pdl\drivers/peripheral/dma/cy_dma.h **** } cy_stc_dma_channel_config_t;
 435:Generated_Source\PSoC6\pdl\drivers/peripheral/dma/cy_dma.h **** 
 436:Generated_Source\PSoC6\pdl\drivers/peripheral/dma/cy_dma.h **** 
 437:Generated_Source\PSoC6\pdl\drivers/peripheral/dma/cy_dma.h **** /** This structure holds the initialization values for the CRC feature, only for CPUSS_ver2 */
 438:Generated_Source\PSoC6\pdl\drivers/peripheral/dma/cy_dma.h **** typedef struct
 439:Generated_Source\PSoC6\pdl\drivers/peripheral/dma/cy_dma.h **** {
 440:Generated_Source\PSoC6\pdl\drivers/peripheral/dma/cy_dma.h ****     bool     dataReverse;     /**< Specifies the bit order in which a data byte is processed (rever
 441:Generated_Source\PSoC6\pdl\drivers/peripheral/dma/cy_dma.h ****                                * 'false': Most significant bit (bit 1) first.
 442:Generated_Source\PSoC6\pdl\drivers/peripheral/dma/cy_dma.h ****                                * 'true': Least significant bit (bit 0) first.
 443:Generated_Source\PSoC6\pdl\drivers/peripheral/dma/cy_dma.h ****                                */
 444:Generated_Source\PSoC6\pdl\drivers/peripheral/dma/cy_dma.h ****     uint32_t dataXor;         /**< Specifies a byte mask with which each data byte is XORed. The XO
 445:Generated_Source\PSoC6\pdl\drivers/peripheral/dma/cy_dma.h ****     bool     reminderReverse; /**< Specifies whether the remainder is bit reversed (reversal is per
 446:Generated_Source\PSoC6\pdl\drivers/peripheral/dma/cy_dma.h ****                                *   Note: this parameter doesn't affect the CRC value stored into th
 447:Generated_Source\PSoC6\pdl\drivers/peripheral/dma/cy_dma.h ****                                *   The reversed value remains in the CRC_REM_RESULT register.
 448:Generated_Source\PSoC6\pdl\drivers/peripheral/dma/cy_dma.h ****                                */
 449:Generated_Source\PSoC6\pdl\drivers/peripheral/dma/cy_dma.h ****     uint32_t reminderXor;     /**< Specifies a mask with which the remainder is XORed. The XOR is p
 450:Generated_Source\PSoC6\pdl\drivers/peripheral/dma/cy_dma.h ****                                *   Note: this parameter doesn't affect the CRC value stored into th
 451:Generated_Source\PSoC6\pdl\drivers/peripheral/dma/cy_dma.h ****                                *   The XORed value remains in the CRC_REM_RESULT register.
 452:Generated_Source\PSoC6\pdl\drivers/peripheral/dma/cy_dma.h ****                                */
 453:Generated_Source\PSoC6\pdl\drivers/peripheral/dma/cy_dma.h ****     uint32_t polynomial;      /**< CRC polynomial. The polynomial is represented WITHOUT the high o
 454:Generated_Source\PSoC6\pdl\drivers/peripheral/dma/cy_dma.h ****                                * The polynomial should be aligned/shifted such that the more signif
 455:Generated_Source\PSoC6\pdl\drivers/peripheral/dma/cy_dma.h ****                                * and the less significant bits (bit 0 and up) contain padding '0's.
 456:Generated_Source\PSoC6\pdl\drivers/peripheral/dma/cy_dma.h ****                                * - CRC32: POLYNOMIAL is 0x04c11db7 (x^32 + x^26 + x^23 + x^22 + x^1
 457:Generated_Source\PSoC6\pdl\drivers/peripheral/dma/cy_dma.h ****                                * - CRC16: POLYNOMIAL is 0x80050000 (x^16 + x^15 + x^2 + 1, shifted 
 458:Generated_Source\PSoC6\pdl\drivers/peripheral/dma/cy_dma.h ****                                * - CRC16 CCITT: POLYNOMIAL is 0x10210000 (x^16 + x^12 + x^5 + 1, sh
 459:Generated_Source\PSoC6\pdl\drivers/peripheral/dma/cy_dma.h ****                                */
 460:Generated_Source\PSoC6\pdl\drivers/peripheral/dma/cy_dma.h ****     uint32_t lfsrInitVal;     /**< The initial value of the Linear Feedback Shift Register */
 461:Generated_Source\PSoC6\pdl\drivers/peripheral/dma/cy_dma.h **** } cy_stc_dma_crc_config_t;
 462:Generated_Source\PSoC6\pdl\drivers/peripheral/dma/cy_dma.h **** 
 463:Generated_Source\PSoC6\pdl\drivers/peripheral/dma/cy_dma.h **** /** \} group_dma_data_structures */
 464:Generated_Source\PSoC6\pdl\drivers/peripheral/dma/cy_dma.h **** 
ARM GAS  C:\Users\terre\AppData\Local\Temp\ccsuDe1N.s 			page 13


 465:Generated_Source\PSoC6\pdl\drivers/peripheral/dma/cy_dma.h **** 
 466:Generated_Source\PSoC6\pdl\drivers/peripheral/dma/cy_dma.h **** /**
 467:Generated_Source\PSoC6\pdl\drivers/peripheral/dma/cy_dma.h **** * \addtogroup group_dma_functions
 468:Generated_Source\PSoC6\pdl\drivers/peripheral/dma/cy_dma.h **** * \{
 469:Generated_Source\PSoC6\pdl\drivers/peripheral/dma/cy_dma.h **** */
 470:Generated_Source\PSoC6\pdl\drivers/peripheral/dma/cy_dma.h **** 
 471:Generated_Source\PSoC6\pdl\drivers/peripheral/dma/cy_dma.h **** 
 472:Generated_Source\PSoC6\pdl\drivers/peripheral/dma/cy_dma.h **** /**
 473:Generated_Source\PSoC6\pdl\drivers/peripheral/dma/cy_dma.h **** * \addtogroup group_dma_block_functions
 474:Generated_Source\PSoC6\pdl\drivers/peripheral/dma/cy_dma.h **** * \{
 475:Generated_Source\PSoC6\pdl\drivers/peripheral/dma/cy_dma.h **** */
 476:Generated_Source\PSoC6\pdl\drivers/peripheral/dma/cy_dma.h **** 
 477:Generated_Source\PSoC6\pdl\drivers/peripheral/dma/cy_dma.h **** 
 478:Generated_Source\PSoC6\pdl\drivers/peripheral/dma/cy_dma.h **** __STATIC_INLINE void     Cy_DMA_Enable             (DW_Type * base);
 479:Generated_Source\PSoC6\pdl\drivers/peripheral/dma/cy_dma.h **** __STATIC_INLINE void     Cy_DMA_Disable            (DW_Type * base);
 480:Generated_Source\PSoC6\pdl\drivers/peripheral/dma/cy_dma.h **** __STATIC_INLINE uint32_t Cy_DMA_GetActiveChannel   (DW_Type const * base);
 481:Generated_Source\PSoC6\pdl\drivers/peripheral/dma/cy_dma.h **** __STATIC_INLINE void *   Cy_DMA_GetActiveSrcAddress(DW_Type * base);
 482:Generated_Source\PSoC6\pdl\drivers/peripheral/dma/cy_dma.h **** __STATIC_INLINE void *   Cy_DMA_GetActiveDstAddress(DW_Type * base);
 483:Generated_Source\PSoC6\pdl\drivers/peripheral/dma/cy_dma.h ****       cy_en_dma_status_t Cy_DMA_Crc_Init           (DW_Type * base, cy_stc_dma_crc_config_t const *
 484:Generated_Source\PSoC6\pdl\drivers/peripheral/dma/cy_dma.h **** 
 485:Generated_Source\PSoC6\pdl\drivers/peripheral/dma/cy_dma.h **** /** \} group_dma_block_functions */
 486:Generated_Source\PSoC6\pdl\drivers/peripheral/dma/cy_dma.h **** 
 487:Generated_Source\PSoC6\pdl\drivers/peripheral/dma/cy_dma.h **** 
 488:Generated_Source\PSoC6\pdl\drivers/peripheral/dma/cy_dma.h **** /**
 489:Generated_Source\PSoC6\pdl\drivers/peripheral/dma/cy_dma.h **** * \addtogroup group_dma_channel_functions
 490:Generated_Source\PSoC6\pdl\drivers/peripheral/dma/cy_dma.h **** * \{
 491:Generated_Source\PSoC6\pdl\drivers/peripheral/dma/cy_dma.h **** */
 492:Generated_Source\PSoC6\pdl\drivers/peripheral/dma/cy_dma.h ****       cy_en_dma_status_t Cy_DMA_Channel_Init                    (DW_Type       * base, uint32_t cha
 493:Generated_Source\PSoC6\pdl\drivers/peripheral/dma/cy_dma.h ****                 void     Cy_DMA_Channel_DeInit                  (DW_Type       * base, uint32_t cha
 494:Generated_Source\PSoC6\pdl\drivers/peripheral/dma/cy_dma.h **** __STATIC_INLINE void     Cy_DMA_Channel_SetDescriptor           (DW_Type       * base, uint32_t cha
 495:Generated_Source\PSoC6\pdl\drivers/peripheral/dma/cy_dma.h **** __STATIC_INLINE void     Cy_DMA_Channel_Enable                  (DW_Type       * base, uint32_t cha
 496:Generated_Source\PSoC6\pdl\drivers/peripheral/dma/cy_dma.h **** __STATIC_INLINE void     Cy_DMA_Channel_Disable                 (DW_Type       * base, uint32_t cha
 497:Generated_Source\PSoC6\pdl\drivers/peripheral/dma/cy_dma.h **** __STATIC_INLINE void     Cy_DMA_Channel_SetPriority             (DW_Type       * base, uint32_t cha
 498:Generated_Source\PSoC6\pdl\drivers/peripheral/dma/cy_dma.h **** __STATIC_INLINE uint32_t Cy_DMA_Channel_GetPriority             (DW_Type const * base, uint32_t cha
 499:Generated_Source\PSoC6\pdl\drivers/peripheral/dma/cy_dma.h **** __STATIC_INLINE
 500:Generated_Source\PSoC6\pdl\drivers/peripheral/dma/cy_dma.h ****   cy_en_dma_intr_cause_t Cy_DMA_Channel_GetStatus               (DW_Type const * base, uint32_t cha
 501:Generated_Source\PSoC6\pdl\drivers/peripheral/dma/cy_dma.h **** __STATIC_INLINE
 502:Generated_Source\PSoC6\pdl\drivers/peripheral/dma/cy_dma.h **** cy_stc_dma_descriptor_t * Cy_DMA_Channel_GetCurrentDescriptor   (DW_Type const * base, uint32_t cha
 503:Generated_Source\PSoC6\pdl\drivers/peripheral/dma/cy_dma.h **** 
 504:Generated_Source\PSoC6\pdl\drivers/peripheral/dma/cy_dma.h **** __STATIC_INLINE uint32_t Cy_DMA_Channel_GetInterruptStatus      (DW_Type const * base, uint32_t cha
 505:Generated_Source\PSoC6\pdl\drivers/peripheral/dma/cy_dma.h **** __STATIC_INLINE void     Cy_DMA_Channel_ClearInterrupt          (DW_Type       * base, uint32_t cha
 506:Generated_Source\PSoC6\pdl\drivers/peripheral/dma/cy_dma.h **** __STATIC_INLINE void     Cy_DMA_Channel_SetInterrupt            (DW_Type       * base, uint32_t cha
 507:Generated_Source\PSoC6\pdl\drivers/peripheral/dma/cy_dma.h **** __STATIC_INLINE uint32_t Cy_DMA_Channel_GetInterruptMask        (DW_Type const * base, uint32_t cha
 508:Generated_Source\PSoC6\pdl\drivers/peripheral/dma/cy_dma.h **** __STATIC_INLINE void     Cy_DMA_Channel_SetInterruptMask        (DW_Type       * base, uint32_t cha
 509:Generated_Source\PSoC6\pdl\drivers/peripheral/dma/cy_dma.h **** __STATIC_INLINE uint32_t Cy_DMA_Channel_GetInterruptStatusMasked(DW_Type const * base, uint32_t cha
 510:Generated_Source\PSoC6\pdl\drivers/peripheral/dma/cy_dma.h **** 
 511:Generated_Source\PSoC6\pdl\drivers/peripheral/dma/cy_dma.h **** /** \} group_dma_channel_functions */
 512:Generated_Source\PSoC6\pdl\drivers/peripheral/dma/cy_dma.h **** 
 513:Generated_Source\PSoC6\pdl\drivers/peripheral/dma/cy_dma.h **** 
 514:Generated_Source\PSoC6\pdl\drivers/peripheral/dma/cy_dma.h **** /**
 515:Generated_Source\PSoC6\pdl\drivers/peripheral/dma/cy_dma.h **** * \addtogroup group_dma_descriptor_functions
 516:Generated_Source\PSoC6\pdl\drivers/peripheral/dma/cy_dma.h **** * \{
 517:Generated_Source\PSoC6\pdl\drivers/peripheral/dma/cy_dma.h **** */
 518:Generated_Source\PSoC6\pdl\drivers/peripheral/dma/cy_dma.h **** 
 519:Generated_Source\PSoC6\pdl\drivers/peripheral/dma/cy_dma.h ****   cy_en_dma_status_t Cy_DMA_Descriptor_Init  (cy_stc_dma_descriptor_t * descriptor, cy_stc_dma_desc
 520:Generated_Source\PSoC6\pdl\drivers/peripheral/dma/cy_dma.h ****                 void Cy_DMA_Descriptor_DeInit(cy_stc_dma_descriptor_t * descriptor);
 521:Generated_Source\PSoC6\pdl\drivers/peripheral/dma/cy_dma.h ****                 
ARM GAS  C:\Users\terre\AppData\Local\Temp\ccsuDe1N.s 			page 14


 522:Generated_Source\PSoC6\pdl\drivers/peripheral/dma/cy_dma.h ****                 void Cy_DMA_Descriptor_SetNextDescriptor   (cy_stc_dma_descriptor_t * descriptor, c
 523:Generated_Source\PSoC6\pdl\drivers/peripheral/dma/cy_dma.h ****                 void Cy_DMA_Descriptor_SetDescriptorType   (cy_stc_dma_descriptor_t * descriptor, c
 524:Generated_Source\PSoC6\pdl\drivers/peripheral/dma/cy_dma.h **** __STATIC_INLINE void Cy_DMA_Descriptor_SetSrcAddress       (cy_stc_dma_descriptor_t * descriptor, v
 525:Generated_Source\PSoC6\pdl\drivers/peripheral/dma/cy_dma.h **** __STATIC_INLINE void Cy_DMA_Descriptor_SetDstAddress       (cy_stc_dma_descriptor_t * descriptor, v
 526:Generated_Source\PSoC6\pdl\drivers/peripheral/dma/cy_dma.h **** __STATIC_INLINE void Cy_DMA_Descriptor_SetXloopDataCount   (cy_stc_dma_descriptor_t * descriptor, u
 527:Generated_Source\PSoC6\pdl\drivers/peripheral/dma/cy_dma.h **** __STATIC_INLINE void Cy_DMA_Descriptor_SetYloopDataCount   (cy_stc_dma_descriptor_t * descriptor, u
 528:Generated_Source\PSoC6\pdl\drivers/peripheral/dma/cy_dma.h **** __STATIC_INLINE void Cy_DMA_Descriptor_SetXloopSrcIncrement(cy_stc_dma_descriptor_t * descriptor, i
 529:Generated_Source\PSoC6\pdl\drivers/peripheral/dma/cy_dma.h **** __STATIC_INLINE void Cy_DMA_Descriptor_SetXloopDstIncrement(cy_stc_dma_descriptor_t * descriptor, i
 530:Generated_Source\PSoC6\pdl\drivers/peripheral/dma/cy_dma.h **** __STATIC_INLINE void Cy_DMA_Descriptor_SetYloopSrcIncrement(cy_stc_dma_descriptor_t * descriptor, i
 531:Generated_Source\PSoC6\pdl\drivers/peripheral/dma/cy_dma.h **** __STATIC_INLINE void Cy_DMA_Descriptor_SetYloopDstIncrement(cy_stc_dma_descriptor_t * descriptor, i
 532:Generated_Source\PSoC6\pdl\drivers/peripheral/dma/cy_dma.h **** __STATIC_INLINE void Cy_DMA_Descriptor_SetInterruptType    (cy_stc_dma_descriptor_t * descriptor, c
 533:Generated_Source\PSoC6\pdl\drivers/peripheral/dma/cy_dma.h **** __STATIC_INLINE void Cy_DMA_Descriptor_SetTriggerInType    (cy_stc_dma_descriptor_t * descriptor, c
 534:Generated_Source\PSoC6\pdl\drivers/peripheral/dma/cy_dma.h **** __STATIC_INLINE void Cy_DMA_Descriptor_SetTriggerOutType   (cy_stc_dma_descriptor_t * descriptor, c
 535:Generated_Source\PSoC6\pdl\drivers/peripheral/dma/cy_dma.h **** __STATIC_INLINE void Cy_DMA_Descriptor_SetDataSize         (cy_stc_dma_descriptor_t * descriptor, c
 536:Generated_Source\PSoC6\pdl\drivers/peripheral/dma/cy_dma.h **** __STATIC_INLINE void Cy_DMA_Descriptor_SetSrcTransferSize  (cy_stc_dma_descriptor_t * descriptor, c
 537:Generated_Source\PSoC6\pdl\drivers/peripheral/dma/cy_dma.h **** __STATIC_INLINE void Cy_DMA_Descriptor_SetDstTransferSize  (cy_stc_dma_descriptor_t * descriptor, c
 538:Generated_Source\PSoC6\pdl\drivers/peripheral/dma/cy_dma.h **** __STATIC_INLINE void Cy_DMA_Descriptor_SetRetrigger        (cy_stc_dma_descriptor_t * descriptor, c
 539:Generated_Source\PSoC6\pdl\drivers/peripheral/dma/cy_dma.h **** __STATIC_INLINE void Cy_DMA_Descriptor_SetChannelState     (cy_stc_dma_descriptor_t * descriptor, c
 540:Generated_Source\PSoC6\pdl\drivers/peripheral/dma/cy_dma.h **** 
 541:Generated_Source\PSoC6\pdl\drivers/peripheral/dma/cy_dma.h ****                 cy_stc_dma_descriptor_t *   Cy_DMA_Descriptor_GetNextDescriptor   (cy_stc_dma_descr
 542:Generated_Source\PSoC6\pdl\drivers/peripheral/dma/cy_dma.h **** __STATIC_INLINE cy_en_dma_descriptor_type_t Cy_DMA_Descriptor_GetDescriptorType   (cy_stc_dma_descr
 543:Generated_Source\PSoC6\pdl\drivers/peripheral/dma/cy_dma.h **** __STATIC_INLINE void *                      Cy_DMA_Descriptor_GetSrcAddress       (cy_stc_dma_descr
 544:Generated_Source\PSoC6\pdl\drivers/peripheral/dma/cy_dma.h **** __STATIC_INLINE void *                      Cy_DMA_Descriptor_GetDstAddress       (cy_stc_dma_descr
 545:Generated_Source\PSoC6\pdl\drivers/peripheral/dma/cy_dma.h **** __STATIC_INLINE uint32_t                    Cy_DMA_Descriptor_GetXloopDataCount   (cy_stc_dma_descr
 546:Generated_Source\PSoC6\pdl\drivers/peripheral/dma/cy_dma.h **** __STATIC_INLINE uint32_t                    Cy_DMA_Descriptor_GetYloopDataCount   (cy_stc_dma_descr
 547:Generated_Source\PSoC6\pdl\drivers/peripheral/dma/cy_dma.h **** __STATIC_INLINE int32_t                     Cy_DMA_Descriptor_GetXloopSrcIncrement(cy_stc_dma_descr
 548:Generated_Source\PSoC6\pdl\drivers/peripheral/dma/cy_dma.h **** __STATIC_INLINE int32_t                     Cy_DMA_Descriptor_GetXloopDstIncrement(cy_stc_dma_descr
 549:Generated_Source\PSoC6\pdl\drivers/peripheral/dma/cy_dma.h **** __STATIC_INLINE int32_t                     Cy_DMA_Descriptor_GetYloopSrcIncrement(cy_stc_dma_descr
 550:Generated_Source\PSoC6\pdl\drivers/peripheral/dma/cy_dma.h **** __STATIC_INLINE int32_t                     Cy_DMA_Descriptor_GetYloopDstIncrement(cy_stc_dma_descr
 551:Generated_Source\PSoC6\pdl\drivers/peripheral/dma/cy_dma.h **** __STATIC_INLINE cy_en_dma_trigger_type_t    Cy_DMA_Descriptor_GetInterruptType    (cy_stc_dma_descr
 552:Generated_Source\PSoC6\pdl\drivers/peripheral/dma/cy_dma.h **** __STATIC_INLINE cy_en_dma_trigger_type_t    Cy_DMA_Descriptor_GetTriggerInType    (cy_stc_dma_descr
 553:Generated_Source\PSoC6\pdl\drivers/peripheral/dma/cy_dma.h **** __STATIC_INLINE cy_en_dma_trigger_type_t    Cy_DMA_Descriptor_GetTriggerOutType   (cy_stc_dma_descr
 554:Generated_Source\PSoC6\pdl\drivers/peripheral/dma/cy_dma.h **** __STATIC_INLINE cy_en_dma_data_size_t       Cy_DMA_Descriptor_GetDataSize         (cy_stc_dma_descr
 555:Generated_Source\PSoC6\pdl\drivers/peripheral/dma/cy_dma.h **** __STATIC_INLINE cy_en_dma_transfer_size_t   Cy_DMA_Descriptor_GetSrcTransferSize  (cy_stc_dma_descr
 556:Generated_Source\PSoC6\pdl\drivers/peripheral/dma/cy_dma.h **** __STATIC_INLINE cy_en_dma_transfer_size_t   Cy_DMA_Descriptor_GetDstTransferSize  (cy_stc_dma_descr
 557:Generated_Source\PSoC6\pdl\drivers/peripheral/dma/cy_dma.h **** __STATIC_INLINE cy_en_dma_retrigger_t       Cy_DMA_Descriptor_GetRetrigger        (cy_stc_dma_descr
 558:Generated_Source\PSoC6\pdl\drivers/peripheral/dma/cy_dma.h **** __STATIC_INLINE cy_en_dma_channel_state_t   Cy_DMA_Descriptor_GetChannelState     (cy_stc_dma_descr
 559:Generated_Source\PSoC6\pdl\drivers/peripheral/dma/cy_dma.h **** 
 560:Generated_Source\PSoC6\pdl\drivers/peripheral/dma/cy_dma.h **** /** \} group_dma_descriptor_functions */
 561:Generated_Source\PSoC6\pdl\drivers/peripheral/dma/cy_dma.h **** 
 562:Generated_Source\PSoC6\pdl\drivers/peripheral/dma/cy_dma.h **** 
 563:Generated_Source\PSoC6\pdl\drivers/peripheral/dma/cy_dma.h **** 
 564:Generated_Source\PSoC6\pdl\drivers/peripheral/dma/cy_dma.h **** /***************************************
 565:Generated_Source\PSoC6\pdl\drivers/peripheral/dma/cy_dma.h **** *    In-line Function Implementation
 566:Generated_Source\PSoC6\pdl\drivers/peripheral/dma/cy_dma.h **** ***************************************/
 567:Generated_Source\PSoC6\pdl\drivers/peripheral/dma/cy_dma.h **** 
 568:Generated_Source\PSoC6\pdl\drivers/peripheral/dma/cy_dma.h **** 
 569:Generated_Source\PSoC6\pdl\drivers/peripheral/dma/cy_dma.h **** /**
 570:Generated_Source\PSoC6\pdl\drivers/peripheral/dma/cy_dma.h **** * \addtogroup group_dma_block_functions
 571:Generated_Source\PSoC6\pdl\drivers/peripheral/dma/cy_dma.h **** * \{
 572:Generated_Source\PSoC6\pdl\drivers/peripheral/dma/cy_dma.h **** */
 573:Generated_Source\PSoC6\pdl\drivers/peripheral/dma/cy_dma.h **** 
 574:Generated_Source\PSoC6\pdl\drivers/peripheral/dma/cy_dma.h **** 
 575:Generated_Source\PSoC6\pdl\drivers/peripheral/dma/cy_dma.h **** /*******************************************************************************
 576:Generated_Source\PSoC6\pdl\drivers/peripheral/dma/cy_dma.h **** * Function Name: Cy_DMA_Enable
 577:Generated_Source\PSoC6\pdl\drivers/peripheral/dma/cy_dma.h **** ****************************************************************************//**
 578:Generated_Source\PSoC6\pdl\drivers/peripheral/dma/cy_dma.h **** *
ARM GAS  C:\Users\terre\AppData\Local\Temp\ccsuDe1N.s 			page 15


 579:Generated_Source\PSoC6\pdl\drivers/peripheral/dma/cy_dma.h **** * Enables the DMA block.
 580:Generated_Source\PSoC6\pdl\drivers/peripheral/dma/cy_dma.h **** *
 581:Generated_Source\PSoC6\pdl\drivers/peripheral/dma/cy_dma.h **** * \param base
 582:Generated_Source\PSoC6\pdl\drivers/peripheral/dma/cy_dma.h **** * The pointer to the hardware DMA block.
 583:Generated_Source\PSoC6\pdl\drivers/peripheral/dma/cy_dma.h **** *
 584:Generated_Source\PSoC6\pdl\drivers/peripheral/dma/cy_dma.h **** * \funcusage 
 585:Generated_Source\PSoC6\pdl\drivers/peripheral/dma/cy_dma.h **** * \snippet dma\2.10\snippet\main.c snippet_Cy_DMA_Enable
 586:Generated_Source\PSoC6\pdl\drivers/peripheral/dma/cy_dma.h **** *
 587:Generated_Source\PSoC6\pdl\drivers/peripheral/dma/cy_dma.h **** *******************************************************************************/
 588:Generated_Source\PSoC6\pdl\drivers/peripheral/dma/cy_dma.h **** __STATIC_INLINE void Cy_DMA_Enable(DW_Type * base)
 589:Generated_Source\PSoC6\pdl\drivers/peripheral/dma/cy_dma.h **** {
 590:Generated_Source\PSoC6\pdl\drivers/peripheral/dma/cy_dma.h ****     DW_CTL(base) |= DW_CTL_ENABLED_Msk;
  73              		.loc 2 590 0
  74 003a 2368     		ldr	r3, [r4]
  75 003c 43F00043 		orr	r3, r3, #-2147483648
  76 0040 2360     		str	r3, [r4]
  77              	.LVL3:
  78              	.LBE9:
  79              	.LBE8:
 149:Generated_Source\PSoC6/DMA_2.c **** 
 150:Generated_Source\PSoC6/DMA_2.c ****     Cy_DMA_Enable(DMA_2_HW);
 151:Generated_Source\PSoC6/DMA_2.c **** }
  80              		.loc 1 151 0
  81 0042 05B0     		add	sp, sp, #20
  82              		.cfi_def_cfa_offset 12
  83              		@ sp needed
  84 0044 30BD     		pop	{r4, r5, pc}
  85              	.L4:
  86 0046 00BF     		.align	2
  87              	.L3:
  88 0048 00000000 		.word	.LANCHOR0
  89 004c 00000000 		.word	.LANCHOR1
  90 0050 00002840 		.word	1076363264
  91              		.cfi_endproc
  92              	.LFE235:
  93              		.size	DMA_2_Init, .-DMA_2_Init
  94              		.section	.text.DMA_2_Start,"ax",%progbits
  95              		.align	2
  96              		.global	DMA_2_Start
  97              		.thumb
  98              		.thumb_func
  99              		.type	DMA_2_Start, %function
 100              	DMA_2_Start:
 101              	.LFB234:
 111:Generated_Source\PSoC6/DMA_2.c ****     if (0U == DMA_2_initVar)
 102              		.loc 1 111 0
 103              		.cfi_startproc
 104              		@ args = 0, pretend = 0, frame = 0
 105              		@ frame_needed = 0, uses_anonymous_args = 0
 106              	.LVL4:
 107 0000 38B5     		push	{r3, r4, r5, lr}
 108              		.cfi_def_cfa_offset 16
 109              		.cfi_offset 3, -16
 110              		.cfi_offset 4, -12
 111              		.cfi_offset 5, -8
 112              		.cfi_offset 14, -4
 113 0002 0546     		mov	r5, r0
ARM GAS  C:\Users\terre\AppData\Local\Temp\ccsuDe1N.s 			page 16


 114 0004 0C46     		mov	r4, r1
 112:Generated_Source\PSoC6/DMA_2.c ****     {
 115              		.loc 1 112 0
 116 0006 124B     		ldr	r3, .L9
 117 0008 93F83030 		ldrb	r3, [r3, #48]	@ zero_extendqisi2
 118 000c 2BB9     		cbnz	r3, .L6
 114:Generated_Source\PSoC6/DMA_2.c ****         DMA_2_initVar = 1u;
 119              		.loc 1 114 0
 120 000e FFF7FEFF 		bl	DMA_2_Init
 121              	.LVL5:
 115:Generated_Source\PSoC6/DMA_2.c ****     }
 122              		.loc 1 115 0
 123 0012 0122     		movs	r2, #1
 124 0014 0E4B     		ldr	r3, .L9
 125 0016 83F83020 		strb	r2, [r3, #48]
 126              	.L6:
 127              	.LVL6:
 128              	.LBB16:
 129              	.LBB17:
 591:Generated_Source\PSoC6\pdl\drivers/peripheral/dma/cy_dma.h **** }
 592:Generated_Source\PSoC6\pdl\drivers/peripheral/dma/cy_dma.h **** 
 593:Generated_Source\PSoC6\pdl\drivers/peripheral/dma/cy_dma.h **** 
 594:Generated_Source\PSoC6\pdl\drivers/peripheral/dma/cy_dma.h **** /*******************************************************************************
 595:Generated_Source\PSoC6\pdl\drivers/peripheral/dma/cy_dma.h **** * Function Name: Cy_DMA_Disable
 596:Generated_Source\PSoC6\pdl\drivers/peripheral/dma/cy_dma.h **** ****************************************************************************//**
 597:Generated_Source\PSoC6\pdl\drivers/peripheral/dma/cy_dma.h **** *
 598:Generated_Source\PSoC6\pdl\drivers/peripheral/dma/cy_dma.h **** * Disables the DMA block.
 599:Generated_Source\PSoC6\pdl\drivers/peripheral/dma/cy_dma.h **** *
 600:Generated_Source\PSoC6\pdl\drivers/peripheral/dma/cy_dma.h **** * \param base
 601:Generated_Source\PSoC6\pdl\drivers/peripheral/dma/cy_dma.h **** * The pointer to the hardware DMA block.
 602:Generated_Source\PSoC6\pdl\drivers/peripheral/dma/cy_dma.h **** *
 603:Generated_Source\PSoC6\pdl\drivers/peripheral/dma/cy_dma.h **** * \funcusage 
 604:Generated_Source\PSoC6\pdl\drivers/peripheral/dma/cy_dma.h **** * \snippet dma\2.10\snippet\main.c snippet_Cy_DMA_Disable
 605:Generated_Source\PSoC6\pdl\drivers/peripheral/dma/cy_dma.h **** *
 606:Generated_Source\PSoC6\pdl\drivers/peripheral/dma/cy_dma.h **** *******************************************************************************/
 607:Generated_Source\PSoC6\pdl\drivers/peripheral/dma/cy_dma.h **** __STATIC_INLINE void Cy_DMA_Disable(DW_Type * base)
 608:Generated_Source\PSoC6\pdl\drivers/peripheral/dma/cy_dma.h **** {
 609:Generated_Source\PSoC6\pdl\drivers/peripheral/dma/cy_dma.h ****     DW_CTL(base) &= (uint32_t) ~DW_CTL_ENABLED_Msk;
 610:Generated_Source\PSoC6\pdl\drivers/peripheral/dma/cy_dma.h **** }
 611:Generated_Source\PSoC6\pdl\drivers/peripheral/dma/cy_dma.h **** 
 612:Generated_Source\PSoC6\pdl\drivers/peripheral/dma/cy_dma.h **** 
 613:Generated_Source\PSoC6\pdl\drivers/peripheral/dma/cy_dma.h **** /*******************************************************************************
 614:Generated_Source\PSoC6\pdl\drivers/peripheral/dma/cy_dma.h **** * Function Name: Cy_DMA_GetActiveChannel
 615:Generated_Source\PSoC6\pdl\drivers/peripheral/dma/cy_dma.h **** ****************************************************************************//**
 616:Generated_Source\PSoC6\pdl\drivers/peripheral/dma/cy_dma.h **** *
 617:Generated_Source\PSoC6\pdl\drivers/peripheral/dma/cy_dma.h **** * Returns the status of the active/pending channels.
 618:Generated_Source\PSoC6\pdl\drivers/peripheral/dma/cy_dma.h **** * the DMA block.
 619:Generated_Source\PSoC6\pdl\drivers/peripheral/dma/cy_dma.h **** *
 620:Generated_Source\PSoC6\pdl\drivers/peripheral/dma/cy_dma.h **** * \param base
 621:Generated_Source\PSoC6\pdl\drivers/peripheral/dma/cy_dma.h **** * The pointer to the hardware DMA block.
 622:Generated_Source\PSoC6\pdl\drivers/peripheral/dma/cy_dma.h **** *
 623:Generated_Source\PSoC6\pdl\drivers/peripheral/dma/cy_dma.h **** * \return
 624:Generated_Source\PSoC6\pdl\drivers/peripheral/dma/cy_dma.h **** * Returns a bit-field with all of the currently active/pending channels in the
 625:Generated_Source\PSoC6\pdl\drivers/peripheral/dma/cy_dma.h **** * DMA block.
 626:Generated_Source\PSoC6\pdl\drivers/peripheral/dma/cy_dma.h **** *
 627:Generated_Source\PSoC6\pdl\drivers/peripheral/dma/cy_dma.h **** * \funcusage 
 628:Generated_Source\PSoC6\pdl\drivers/peripheral/dma/cy_dma.h **** * \snippet dma\2.10\snippet\main.c snippet_Cy_DMA_Disable
ARM GAS  C:\Users\terre\AppData\Local\Temp\ccsuDe1N.s 			page 17


 629:Generated_Source\PSoC6\pdl\drivers/peripheral/dma/cy_dma.h **** *
 630:Generated_Source\PSoC6\pdl\drivers/peripheral/dma/cy_dma.h **** *******************************************************************************/
 631:Generated_Source\PSoC6\pdl\drivers/peripheral/dma/cy_dma.h **** __STATIC_INLINE uint32_t Cy_DMA_GetActiveChannel(DW_Type const * base)
 632:Generated_Source\PSoC6\pdl\drivers/peripheral/dma/cy_dma.h **** {
 633:Generated_Source\PSoC6\pdl\drivers/peripheral/dma/cy_dma.h ****     return(_FLD2VAL(CY_DW_STATUS_CH_IDX, DW_STATUS(base)));
 634:Generated_Source\PSoC6\pdl\drivers/peripheral/dma/cy_dma.h **** }
 635:Generated_Source\PSoC6\pdl\drivers/peripheral/dma/cy_dma.h **** 
 636:Generated_Source\PSoC6\pdl\drivers/peripheral/dma/cy_dma.h **** 
 637:Generated_Source\PSoC6\pdl\drivers/peripheral/dma/cy_dma.h **** /*******************************************************************************
 638:Generated_Source\PSoC6\pdl\drivers/peripheral/dma/cy_dma.h **** * Function Name: Cy_DMA_GetActiveSrcAddress
 639:Generated_Source\PSoC6\pdl\drivers/peripheral/dma/cy_dma.h **** ****************************************************************************//**
 640:Generated_Source\PSoC6\pdl\drivers/peripheral/dma/cy_dma.h **** *
 641:Generated_Source\PSoC6\pdl\drivers/peripheral/dma/cy_dma.h **** * Returns the source address being used for the current transfer.
 642:Generated_Source\PSoC6\pdl\drivers/peripheral/dma/cy_dma.h **** *
 643:Generated_Source\PSoC6\pdl\drivers/peripheral/dma/cy_dma.h **** * \param base
 644:Generated_Source\PSoC6\pdl\drivers/peripheral/dma/cy_dma.h **** * The pointer to the hardware DMA block.
 645:Generated_Source\PSoC6\pdl\drivers/peripheral/dma/cy_dma.h **** *
 646:Generated_Source\PSoC6\pdl\drivers/peripheral/dma/cy_dma.h **** * \return
 647:Generated_Source\PSoC6\pdl\drivers/peripheral/dma/cy_dma.h **** * Returns the pointer to the source of transfer.
 648:Generated_Source\PSoC6\pdl\drivers/peripheral/dma/cy_dma.h **** *
 649:Generated_Source\PSoC6\pdl\drivers/peripheral/dma/cy_dma.h **** * \funcusage 
 650:Generated_Source\PSoC6\pdl\drivers/peripheral/dma/cy_dma.h **** * \snippet dma\2.10\snippet\main.c snippet_Cy_DMA_GetActiveSrcAddress
 651:Generated_Source\PSoC6\pdl\drivers/peripheral/dma/cy_dma.h **** *
 652:Generated_Source\PSoC6\pdl\drivers/peripheral/dma/cy_dma.h **** *******************************************************************************/
 653:Generated_Source\PSoC6\pdl\drivers/peripheral/dma/cy_dma.h **** __STATIC_INLINE void * Cy_DMA_GetActiveSrcAddress(DW_Type * base)
 654:Generated_Source\PSoC6\pdl\drivers/peripheral/dma/cy_dma.h **** {
 655:Generated_Source\PSoC6\pdl\drivers/peripheral/dma/cy_dma.h ****     return ((void *) DW_DESCR_SRC(base));
 656:Generated_Source\PSoC6\pdl\drivers/peripheral/dma/cy_dma.h **** }
 657:Generated_Source\PSoC6\pdl\drivers/peripheral/dma/cy_dma.h **** 
 658:Generated_Source\PSoC6\pdl\drivers/peripheral/dma/cy_dma.h **** 
 659:Generated_Source\PSoC6\pdl\drivers/peripheral/dma/cy_dma.h **** /*******************************************************************************
 660:Generated_Source\PSoC6\pdl\drivers/peripheral/dma/cy_dma.h **** * Function Name: Cy_DMA_GetActiveDstAddress
 661:Generated_Source\PSoC6\pdl\drivers/peripheral/dma/cy_dma.h **** ****************************************************************************//**
 662:Generated_Source\PSoC6\pdl\drivers/peripheral/dma/cy_dma.h **** *
 663:Generated_Source\PSoC6\pdl\drivers/peripheral/dma/cy_dma.h **** * Returns the destination address being used for the current transfer.
 664:Generated_Source\PSoC6\pdl\drivers/peripheral/dma/cy_dma.h **** *
 665:Generated_Source\PSoC6\pdl\drivers/peripheral/dma/cy_dma.h **** * \param base
 666:Generated_Source\PSoC6\pdl\drivers/peripheral/dma/cy_dma.h **** * The pointer to the hardware DMA block.
 667:Generated_Source\PSoC6\pdl\drivers/peripheral/dma/cy_dma.h **** *
 668:Generated_Source\PSoC6\pdl\drivers/peripheral/dma/cy_dma.h **** * \return
 669:Generated_Source\PSoC6\pdl\drivers/peripheral/dma/cy_dma.h **** * Returns the pointer to the destination of transfer.
 670:Generated_Source\PSoC6\pdl\drivers/peripheral/dma/cy_dma.h **** *
 671:Generated_Source\PSoC6\pdl\drivers/peripheral/dma/cy_dma.h **** * \funcusage 
 672:Generated_Source\PSoC6\pdl\drivers/peripheral/dma/cy_dma.h **** * \snippet dma\2.10\snippet\main.c snippet_Cy_DMA_GetActiveSrcAddress
 673:Generated_Source\PSoC6\pdl\drivers/peripheral/dma/cy_dma.h **** *
 674:Generated_Source\PSoC6\pdl\drivers/peripheral/dma/cy_dma.h **** *******************************************************************************/
 675:Generated_Source\PSoC6\pdl\drivers/peripheral/dma/cy_dma.h **** __STATIC_INLINE void * Cy_DMA_GetActiveDstAddress(DW_Type * base)
 676:Generated_Source\PSoC6\pdl\drivers/peripheral/dma/cy_dma.h **** {
 677:Generated_Source\PSoC6\pdl\drivers/peripheral/dma/cy_dma.h ****     return ((void *) DW_DESCR_DST(base));
 678:Generated_Source\PSoC6\pdl\drivers/peripheral/dma/cy_dma.h **** }
 679:Generated_Source\PSoC6\pdl\drivers/peripheral/dma/cy_dma.h **** 
 680:Generated_Source\PSoC6\pdl\drivers/peripheral/dma/cy_dma.h **** /** \} group_dma_block_functions */
 681:Generated_Source\PSoC6\pdl\drivers/peripheral/dma/cy_dma.h **** 
 682:Generated_Source\PSoC6\pdl\drivers/peripheral/dma/cy_dma.h **** /**
 683:Generated_Source\PSoC6\pdl\drivers/peripheral/dma/cy_dma.h **** * \addtogroup group_dma_descriptor_functions
 684:Generated_Source\PSoC6\pdl\drivers/peripheral/dma/cy_dma.h **** * \{
 685:Generated_Source\PSoC6\pdl\drivers/peripheral/dma/cy_dma.h **** */
ARM GAS  C:\Users\terre\AppData\Local\Temp\ccsuDe1N.s 			page 18


 686:Generated_Source\PSoC6\pdl\drivers/peripheral/dma/cy_dma.h **** 
 687:Generated_Source\PSoC6\pdl\drivers/peripheral/dma/cy_dma.h **** 
 688:Generated_Source\PSoC6\pdl\drivers/peripheral/dma/cy_dma.h **** /*******************************************************************************
 689:Generated_Source\PSoC6\pdl\drivers/peripheral/dma/cy_dma.h **** * Function Name: Cy_DMA_Descriptor_SetSrcAddress
 690:Generated_Source\PSoC6\pdl\drivers/peripheral/dma/cy_dma.h **** ****************************************************************************//**
 691:Generated_Source\PSoC6\pdl\drivers/peripheral/dma/cy_dma.h **** *
 692:Generated_Source\PSoC6\pdl\drivers/peripheral/dma/cy_dma.h **** * Sets the source address for the specified descriptor.
 693:Generated_Source\PSoC6\pdl\drivers/peripheral/dma/cy_dma.h **** *
 694:Generated_Source\PSoC6\pdl\drivers/peripheral/dma/cy_dma.h **** * \param descriptor
 695:Generated_Source\PSoC6\pdl\drivers/peripheral/dma/cy_dma.h **** * The descriptor structure instance declared by the user/component.
 696:Generated_Source\PSoC6\pdl\drivers/peripheral/dma/cy_dma.h **** *
 697:Generated_Source\PSoC6\pdl\drivers/peripheral/dma/cy_dma.h **** * \param srcAddress
 698:Generated_Source\PSoC6\pdl\drivers/peripheral/dma/cy_dma.h **** * The source address value for the descriptor.
 699:Generated_Source\PSoC6\pdl\drivers/peripheral/dma/cy_dma.h **** *
 700:Generated_Source\PSoC6\pdl\drivers/peripheral/dma/cy_dma.h **** * \funcusage 
 701:Generated_Source\PSoC6\pdl\drivers/peripheral/dma/cy_dma.h **** * \snippet dma\2.10\snippet\main.c snippet_Cy_DMA_Descriptor_SetterFunctions
 702:Generated_Source\PSoC6\pdl\drivers/peripheral/dma/cy_dma.h **** *
 703:Generated_Source\PSoC6\pdl\drivers/peripheral/dma/cy_dma.h **** *******************************************************************************/
 704:Generated_Source\PSoC6\pdl\drivers/peripheral/dma/cy_dma.h **** __STATIC_INLINE void Cy_DMA_Descriptor_SetSrcAddress(cy_stc_dma_descriptor_t * descriptor, void con
 705:Generated_Source\PSoC6\pdl\drivers/peripheral/dma/cy_dma.h **** {
 706:Generated_Source\PSoC6\pdl\drivers/peripheral/dma/cy_dma.h ****     descriptor->src = (uint32_t) srcAddress;
 130              		.loc 2 706 0
 131 001a 0D4B     		ldr	r3, .L9
 132 001c 5D60     		str	r5, [r3, #4]
 133              	.LVL7:
 134              	.LBE17:
 135              	.LBE16:
 136              	.LBB18:
 137              	.LBB19:
 707:Generated_Source\PSoC6\pdl\drivers/peripheral/dma/cy_dma.h **** }
 708:Generated_Source\PSoC6\pdl\drivers/peripheral/dma/cy_dma.h **** 
 709:Generated_Source\PSoC6\pdl\drivers/peripheral/dma/cy_dma.h **** 
 710:Generated_Source\PSoC6\pdl\drivers/peripheral/dma/cy_dma.h **** /*******************************************************************************
 711:Generated_Source\PSoC6\pdl\drivers/peripheral/dma/cy_dma.h **** * Function Name: Cy_DMA_Descriptor_GetSrcAddress
 712:Generated_Source\PSoC6\pdl\drivers/peripheral/dma/cy_dma.h **** ****************************************************************************//**
 713:Generated_Source\PSoC6\pdl\drivers/peripheral/dma/cy_dma.h **** *
 714:Generated_Source\PSoC6\pdl\drivers/peripheral/dma/cy_dma.h **** * Returns the source address parameter of the specified descriptor.
 715:Generated_Source\PSoC6\pdl\drivers/peripheral/dma/cy_dma.h **** * 
 716:Generated_Source\PSoC6\pdl\drivers/peripheral/dma/cy_dma.h **** * \param descriptor
 717:Generated_Source\PSoC6\pdl\drivers/peripheral/dma/cy_dma.h **** * The descriptor structure instance declared by the user/component.
 718:Generated_Source\PSoC6\pdl\drivers/peripheral/dma/cy_dma.h **** *
 719:Generated_Source\PSoC6\pdl\drivers/peripheral/dma/cy_dma.h **** * \return
 720:Generated_Source\PSoC6\pdl\drivers/peripheral/dma/cy_dma.h **** * The source address value of the descriptor.
 721:Generated_Source\PSoC6\pdl\drivers/peripheral/dma/cy_dma.h **** *
 722:Generated_Source\PSoC6\pdl\drivers/peripheral/dma/cy_dma.h **** * \funcusage 
 723:Generated_Source\PSoC6\pdl\drivers/peripheral/dma/cy_dma.h **** * \snippet dma\2.10\snippet\main.c snippet_Cy_DMA_Descriptor_GetterFunctions
 724:Generated_Source\PSoC6\pdl\drivers/peripheral/dma/cy_dma.h **** *
 725:Generated_Source\PSoC6\pdl\drivers/peripheral/dma/cy_dma.h **** *******************************************************************************/
 726:Generated_Source\PSoC6\pdl\drivers/peripheral/dma/cy_dma.h **** __STATIC_INLINE void * Cy_DMA_Descriptor_GetSrcAddress(cy_stc_dma_descriptor_t const * descriptor)
 727:Generated_Source\PSoC6\pdl\drivers/peripheral/dma/cy_dma.h **** {
 728:Generated_Source\PSoC6\pdl\drivers/peripheral/dma/cy_dma.h ****     return ((void *) descriptor->src);
 729:Generated_Source\PSoC6\pdl\drivers/peripheral/dma/cy_dma.h **** }
 730:Generated_Source\PSoC6\pdl\drivers/peripheral/dma/cy_dma.h **** 
 731:Generated_Source\PSoC6\pdl\drivers/peripheral/dma/cy_dma.h **** 
 732:Generated_Source\PSoC6\pdl\drivers/peripheral/dma/cy_dma.h **** /*******************************************************************************
 733:Generated_Source\PSoC6\pdl\drivers/peripheral/dma/cy_dma.h **** * Function Name: Cy_DMA_Descriptor_SetDstAddress
 734:Generated_Source\PSoC6\pdl\drivers/peripheral/dma/cy_dma.h **** ****************************************************************************//**
ARM GAS  C:\Users\terre\AppData\Local\Temp\ccsuDe1N.s 			page 19


 735:Generated_Source\PSoC6\pdl\drivers/peripheral/dma/cy_dma.h **** *
 736:Generated_Source\PSoC6\pdl\drivers/peripheral/dma/cy_dma.h **** * Sets the destination address for the specified descriptor.
 737:Generated_Source\PSoC6\pdl\drivers/peripheral/dma/cy_dma.h **** *
 738:Generated_Source\PSoC6\pdl\drivers/peripheral/dma/cy_dma.h **** * \param descriptor
 739:Generated_Source\PSoC6\pdl\drivers/peripheral/dma/cy_dma.h **** * The descriptor structure instance declared by the user/component.
 740:Generated_Source\PSoC6\pdl\drivers/peripheral/dma/cy_dma.h **** *
 741:Generated_Source\PSoC6\pdl\drivers/peripheral/dma/cy_dma.h **** * \param dstAddress
 742:Generated_Source\PSoC6\pdl\drivers/peripheral/dma/cy_dma.h **** * The destination address value for the descriptor.
 743:Generated_Source\PSoC6\pdl\drivers/peripheral/dma/cy_dma.h **** *
 744:Generated_Source\PSoC6\pdl\drivers/peripheral/dma/cy_dma.h **** * \funcusage 
 745:Generated_Source\PSoC6\pdl\drivers/peripheral/dma/cy_dma.h **** * \snippet dma\2.10\snippet\main.c snippet_Cy_DMA_Descriptor_SetterFunctions
 746:Generated_Source\PSoC6\pdl\drivers/peripheral/dma/cy_dma.h **** *
 747:Generated_Source\PSoC6\pdl\drivers/peripheral/dma/cy_dma.h **** *******************************************************************************/
 748:Generated_Source\PSoC6\pdl\drivers/peripheral/dma/cy_dma.h **** __STATIC_INLINE void Cy_DMA_Descriptor_SetDstAddress(cy_stc_dma_descriptor_t * descriptor, void con
 749:Generated_Source\PSoC6\pdl\drivers/peripheral/dma/cy_dma.h **** {
 750:Generated_Source\PSoC6\pdl\drivers/peripheral/dma/cy_dma.h ****     descriptor->dst = (uint32_t) dstAddress;
 138              		.loc 2 750 0
 139 001e 9C60     		str	r4, [r3, #8]
 140              	.LVL8:
 141              	.LBE19:
 142              	.LBE18:
 143              	.LBB20:
 144              	.LBB21:
 751:Generated_Source\PSoC6\pdl\drivers/peripheral/dma/cy_dma.h **** }
 752:Generated_Source\PSoC6\pdl\drivers/peripheral/dma/cy_dma.h **** 
 753:Generated_Source\PSoC6\pdl\drivers/peripheral/dma/cy_dma.h **** 
 754:Generated_Source\PSoC6\pdl\drivers/peripheral/dma/cy_dma.h **** /*******************************************************************************
 755:Generated_Source\PSoC6\pdl\drivers/peripheral/dma/cy_dma.h **** * Function Name: Cy_DMA_Descriptor_GetDstAddress
 756:Generated_Source\PSoC6\pdl\drivers/peripheral/dma/cy_dma.h **** ****************************************************************************//**
 757:Generated_Source\PSoC6\pdl\drivers/peripheral/dma/cy_dma.h **** *
 758:Generated_Source\PSoC6\pdl\drivers/peripheral/dma/cy_dma.h **** * Returns the destination address parameter of the specified descriptor.
 759:Generated_Source\PSoC6\pdl\drivers/peripheral/dma/cy_dma.h **** * 
 760:Generated_Source\PSoC6\pdl\drivers/peripheral/dma/cy_dma.h **** * \param descriptor
 761:Generated_Source\PSoC6\pdl\drivers/peripheral/dma/cy_dma.h **** * The descriptor structure instance declared by the user/component.
 762:Generated_Source\PSoC6\pdl\drivers/peripheral/dma/cy_dma.h **** *
 763:Generated_Source\PSoC6\pdl\drivers/peripheral/dma/cy_dma.h **** * \return
 764:Generated_Source\PSoC6\pdl\drivers/peripheral/dma/cy_dma.h **** * The destination address value of the descriptor.
 765:Generated_Source\PSoC6\pdl\drivers/peripheral/dma/cy_dma.h **** *
 766:Generated_Source\PSoC6\pdl\drivers/peripheral/dma/cy_dma.h **** * \funcusage 
 767:Generated_Source\PSoC6\pdl\drivers/peripheral/dma/cy_dma.h **** * \snippet dma\2.10\snippet\main.c snippet_Cy_DMA_Descriptor_GetterFunctions
 768:Generated_Source\PSoC6\pdl\drivers/peripheral/dma/cy_dma.h **** *
 769:Generated_Source\PSoC6\pdl\drivers/peripheral/dma/cy_dma.h **** *******************************************************************************/
 770:Generated_Source\PSoC6\pdl\drivers/peripheral/dma/cy_dma.h **** __STATIC_INLINE void * Cy_DMA_Descriptor_GetDstAddress(cy_stc_dma_descriptor_t const * descriptor)
 771:Generated_Source\PSoC6\pdl\drivers/peripheral/dma/cy_dma.h **** {
 772:Generated_Source\PSoC6\pdl\drivers/peripheral/dma/cy_dma.h ****     return ((void *) descriptor->dst);
 773:Generated_Source\PSoC6\pdl\drivers/peripheral/dma/cy_dma.h **** }
 774:Generated_Source\PSoC6\pdl\drivers/peripheral/dma/cy_dma.h **** 
 775:Generated_Source\PSoC6\pdl\drivers/peripheral/dma/cy_dma.h **** 
 776:Generated_Source\PSoC6\pdl\drivers/peripheral/dma/cy_dma.h **** /*******************************************************************************
 777:Generated_Source\PSoC6\pdl\drivers/peripheral/dma/cy_dma.h **** * Function Name: Cy_DMA_Descriptor_SetInterruptType
 778:Generated_Source\PSoC6\pdl\drivers/peripheral/dma/cy_dma.h **** ****************************************************************************//**
 779:Generated_Source\PSoC6\pdl\drivers/peripheral/dma/cy_dma.h **** *
 780:Generated_Source\PSoC6\pdl\drivers/peripheral/dma/cy_dma.h **** * Sets the interrupt type for the specified descriptor.
 781:Generated_Source\PSoC6\pdl\drivers/peripheral/dma/cy_dma.h **** *
 782:Generated_Source\PSoC6\pdl\drivers/peripheral/dma/cy_dma.h **** * \param descriptor
 783:Generated_Source\PSoC6\pdl\drivers/peripheral/dma/cy_dma.h **** * The descriptor structure instance declared by the user/component.
 784:Generated_Source\PSoC6\pdl\drivers/peripheral/dma/cy_dma.h **** *
ARM GAS  C:\Users\terre\AppData\Local\Temp\ccsuDe1N.s 			page 20


 785:Generated_Source\PSoC6\pdl\drivers/peripheral/dma/cy_dma.h **** * \param interruptType
 786:Generated_Source\PSoC6\pdl\drivers/peripheral/dma/cy_dma.h **** * The interrupt type set for the descriptor. \ref cy_en_dma_trigger_type_t
 787:Generated_Source\PSoC6\pdl\drivers/peripheral/dma/cy_dma.h **** *
 788:Generated_Source\PSoC6\pdl\drivers/peripheral/dma/cy_dma.h **** * \funcusage 
 789:Generated_Source\PSoC6\pdl\drivers/peripheral/dma/cy_dma.h **** * \snippet dma\2.10\snippet\main.c snippet_Cy_DMA_Descriptor_SetterFunctions
 790:Generated_Source\PSoC6\pdl\drivers/peripheral/dma/cy_dma.h **** *
 791:Generated_Source\PSoC6\pdl\drivers/peripheral/dma/cy_dma.h **** *******************************************************************************/
 792:Generated_Source\PSoC6\pdl\drivers/peripheral/dma/cy_dma.h **** __STATIC_INLINE void Cy_DMA_Descriptor_SetInterruptType(cy_stc_dma_descriptor_t * descriptor, cy_en
 793:Generated_Source\PSoC6\pdl\drivers/peripheral/dma/cy_dma.h **** {
 794:Generated_Source\PSoC6\pdl\drivers/peripheral/dma/cy_dma.h ****     CY_ASSERT_L3(CY_DMA_IS_TRIG_TYPE_VALID(interruptType));
 795:Generated_Source\PSoC6\pdl\drivers/peripheral/dma/cy_dma.h ****     
 796:Generated_Source\PSoC6\pdl\drivers/peripheral/dma/cy_dma.h ****     CY_REG32_CLR_SET(descriptor->ctl, CY_DMA_CTL_INTR_TYPE, interruptType);
 797:Generated_Source\PSoC6\pdl\drivers/peripheral/dma/cy_dma.h **** }
 798:Generated_Source\PSoC6\pdl\drivers/peripheral/dma/cy_dma.h **** 
 799:Generated_Source\PSoC6\pdl\drivers/peripheral/dma/cy_dma.h **** 
 800:Generated_Source\PSoC6\pdl\drivers/peripheral/dma/cy_dma.h **** /*******************************************************************************
 801:Generated_Source\PSoC6\pdl\drivers/peripheral/dma/cy_dma.h **** * Function Name: Cy_DMA_Descriptor_GetInterruptType
 802:Generated_Source\PSoC6\pdl\drivers/peripheral/dma/cy_dma.h **** ****************************************************************************//**
 803:Generated_Source\PSoC6\pdl\drivers/peripheral/dma/cy_dma.h **** *
 804:Generated_Source\PSoC6\pdl\drivers/peripheral/dma/cy_dma.h **** * Returns the Interrupt-Type of the specified descriptor.
 805:Generated_Source\PSoC6\pdl\drivers/peripheral/dma/cy_dma.h **** *
 806:Generated_Source\PSoC6\pdl\drivers/peripheral/dma/cy_dma.h **** * \param descriptor
 807:Generated_Source\PSoC6\pdl\drivers/peripheral/dma/cy_dma.h **** * The descriptor structure instance declared by the user/component.
 808:Generated_Source\PSoC6\pdl\drivers/peripheral/dma/cy_dma.h **** *
 809:Generated_Source\PSoC6\pdl\drivers/peripheral/dma/cy_dma.h **** * \return
 810:Generated_Source\PSoC6\pdl\drivers/peripheral/dma/cy_dma.h **** * The Interrupt-Type \ref cy_en_dma_trigger_type_t.
 811:Generated_Source\PSoC6\pdl\drivers/peripheral/dma/cy_dma.h **** *
 812:Generated_Source\PSoC6\pdl\drivers/peripheral/dma/cy_dma.h **** * \funcusage 
 813:Generated_Source\PSoC6\pdl\drivers/peripheral/dma/cy_dma.h **** * \snippet dma\2.10\snippet\main.c snippet_Cy_DMA_Descriptor_GetterFunctions
 814:Generated_Source\PSoC6\pdl\drivers/peripheral/dma/cy_dma.h **** *  
 815:Generated_Source\PSoC6\pdl\drivers/peripheral/dma/cy_dma.h **** *******************************************************************************/
 816:Generated_Source\PSoC6\pdl\drivers/peripheral/dma/cy_dma.h **** __STATIC_INLINE cy_en_dma_trigger_type_t Cy_DMA_Descriptor_GetInterruptType(cy_stc_dma_descriptor_t
 817:Generated_Source\PSoC6\pdl\drivers/peripheral/dma/cy_dma.h **** {
 818:Generated_Source\PSoC6\pdl\drivers/peripheral/dma/cy_dma.h ****     return((cy_en_dma_trigger_type_t) _FLD2VAL(CY_DMA_CTL_INTR_TYPE, descriptor->ctl));
 819:Generated_Source\PSoC6\pdl\drivers/peripheral/dma/cy_dma.h **** }
 820:Generated_Source\PSoC6\pdl\drivers/peripheral/dma/cy_dma.h **** 
 821:Generated_Source\PSoC6\pdl\drivers/peripheral/dma/cy_dma.h **** 
 822:Generated_Source\PSoC6\pdl\drivers/peripheral/dma/cy_dma.h **** /*******************************************************************************
 823:Generated_Source\PSoC6\pdl\drivers/peripheral/dma/cy_dma.h **** * Function Name: Cy_DMA_Descriptor_SetTriggerInType
 824:Generated_Source\PSoC6\pdl\drivers/peripheral/dma/cy_dma.h **** ****************************************************************************//**
 825:Generated_Source\PSoC6\pdl\drivers/peripheral/dma/cy_dma.h **** *
 826:Generated_Source\PSoC6\pdl\drivers/peripheral/dma/cy_dma.h **** * Sets the Trigger-In-Type for the specified descriptor.
 827:Generated_Source\PSoC6\pdl\drivers/peripheral/dma/cy_dma.h **** *
 828:Generated_Source\PSoC6\pdl\drivers/peripheral/dma/cy_dma.h **** * \param descriptor
 829:Generated_Source\PSoC6\pdl\drivers/peripheral/dma/cy_dma.h **** * The descriptor structure instance declared by the user/component.
 830:Generated_Source\PSoC6\pdl\drivers/peripheral/dma/cy_dma.h **** *
 831:Generated_Source\PSoC6\pdl\drivers/peripheral/dma/cy_dma.h **** * \param triggerInType
 832:Generated_Source\PSoC6\pdl\drivers/peripheral/dma/cy_dma.h **** * The Trigger In Type parameter \ref cy_en_dma_trigger_type_t
 833:Generated_Source\PSoC6\pdl\drivers/peripheral/dma/cy_dma.h **** *
 834:Generated_Source\PSoC6\pdl\drivers/peripheral/dma/cy_dma.h **** * \funcusage 
 835:Generated_Source\PSoC6\pdl\drivers/peripheral/dma/cy_dma.h **** * \snippet dma\2.10\snippet\main.c snippet_Cy_DMA_Descriptor_SetterFunctions
 836:Generated_Source\PSoC6\pdl\drivers/peripheral/dma/cy_dma.h **** *
 837:Generated_Source\PSoC6\pdl\drivers/peripheral/dma/cy_dma.h **** *******************************************************************************/
 838:Generated_Source\PSoC6\pdl\drivers/peripheral/dma/cy_dma.h **** __STATIC_INLINE void Cy_DMA_Descriptor_SetTriggerInType(cy_stc_dma_descriptor_t * descriptor, cy_en
 839:Generated_Source\PSoC6\pdl\drivers/peripheral/dma/cy_dma.h **** {
 840:Generated_Source\PSoC6\pdl\drivers/peripheral/dma/cy_dma.h ****     CY_ASSERT_L3(CY_DMA_IS_TRIG_TYPE_VALID(triggerInType));
 841:Generated_Source\PSoC6\pdl\drivers/peripheral/dma/cy_dma.h ****     
ARM GAS  C:\Users\terre\AppData\Local\Temp\ccsuDe1N.s 			page 21


 842:Generated_Source\PSoC6\pdl\drivers/peripheral/dma/cy_dma.h ****     CY_REG32_CLR_SET(descriptor->ctl, CY_DMA_CTL_TR_IN_TYPE, triggerInType);
 843:Generated_Source\PSoC6\pdl\drivers/peripheral/dma/cy_dma.h **** }
 844:Generated_Source\PSoC6\pdl\drivers/peripheral/dma/cy_dma.h **** 
 845:Generated_Source\PSoC6\pdl\drivers/peripheral/dma/cy_dma.h **** 
 846:Generated_Source\PSoC6\pdl\drivers/peripheral/dma/cy_dma.h **** /*******************************************************************************
 847:Generated_Source\PSoC6\pdl\drivers/peripheral/dma/cy_dma.h **** * Function Name: Cy_DMA_Descriptor_GetTriggerInType
 848:Generated_Source\PSoC6\pdl\drivers/peripheral/dma/cy_dma.h **** ****************************************************************************//**
 849:Generated_Source\PSoC6\pdl\drivers/peripheral/dma/cy_dma.h **** *
 850:Generated_Source\PSoC6\pdl\drivers/peripheral/dma/cy_dma.h **** * Returns the Trigger-In-Type parameter of the specified descriptor.
 851:Generated_Source\PSoC6\pdl\drivers/peripheral/dma/cy_dma.h **** *
 852:Generated_Source\PSoC6\pdl\drivers/peripheral/dma/cy_dma.h **** * \param descriptor
 853:Generated_Source\PSoC6\pdl\drivers/peripheral/dma/cy_dma.h **** * The descriptor structure instance declared by the user/component.
 854:Generated_Source\PSoC6\pdl\drivers/peripheral/dma/cy_dma.h **** *
 855:Generated_Source\PSoC6\pdl\drivers/peripheral/dma/cy_dma.h **** * \return
 856:Generated_Source\PSoC6\pdl\drivers/peripheral/dma/cy_dma.h **** * The Trigger-In-Type \ref cy_en_dma_trigger_type_t
 857:Generated_Source\PSoC6\pdl\drivers/peripheral/dma/cy_dma.h **** *
 858:Generated_Source\PSoC6\pdl\drivers/peripheral/dma/cy_dma.h **** * \funcusage 
 859:Generated_Source\PSoC6\pdl\drivers/peripheral/dma/cy_dma.h **** * \snippet dma\2.10\snippet\main.c snippet_Cy_DMA_Descriptor_GetterFunctions
 860:Generated_Source\PSoC6\pdl\drivers/peripheral/dma/cy_dma.h **** *  
 861:Generated_Source\PSoC6\pdl\drivers/peripheral/dma/cy_dma.h **** *******************************************************************************/
 862:Generated_Source\PSoC6\pdl\drivers/peripheral/dma/cy_dma.h **** __STATIC_INLINE cy_en_dma_trigger_type_t Cy_DMA_Descriptor_GetTriggerInType(cy_stc_dma_descriptor_t
 863:Generated_Source\PSoC6\pdl\drivers/peripheral/dma/cy_dma.h **** {
 864:Generated_Source\PSoC6\pdl\drivers/peripheral/dma/cy_dma.h ****     return((cy_en_dma_trigger_type_t) _FLD2VAL(CY_DMA_CTL_TR_IN_TYPE, descriptor->ctl));
 865:Generated_Source\PSoC6\pdl\drivers/peripheral/dma/cy_dma.h **** }
 866:Generated_Source\PSoC6\pdl\drivers/peripheral/dma/cy_dma.h **** 
 867:Generated_Source\PSoC6\pdl\drivers/peripheral/dma/cy_dma.h **** 
 868:Generated_Source\PSoC6\pdl\drivers/peripheral/dma/cy_dma.h **** /*******************************************************************************
 869:Generated_Source\PSoC6\pdl\drivers/peripheral/dma/cy_dma.h **** * Function Name: Cy_DMA_Descriptor_SetTriggerOutType
 870:Generated_Source\PSoC6\pdl\drivers/peripheral/dma/cy_dma.h **** ****************************************************************************//**
 871:Generated_Source\PSoC6\pdl\drivers/peripheral/dma/cy_dma.h **** *
 872:Generated_Source\PSoC6\pdl\drivers/peripheral/dma/cy_dma.h **** * Sets the Trigger-Out-Type for the specified descriptor.
 873:Generated_Source\PSoC6\pdl\drivers/peripheral/dma/cy_dma.h **** *
 874:Generated_Source\PSoC6\pdl\drivers/peripheral/dma/cy_dma.h **** * \param descriptor
 875:Generated_Source\PSoC6\pdl\drivers/peripheral/dma/cy_dma.h **** * The descriptor structure instance declared by the user/component.
 876:Generated_Source\PSoC6\pdl\drivers/peripheral/dma/cy_dma.h **** *
 877:Generated_Source\PSoC6\pdl\drivers/peripheral/dma/cy_dma.h **** * \param triggerOutType
 878:Generated_Source\PSoC6\pdl\drivers/peripheral/dma/cy_dma.h **** * The Trigger-Out-Type set for the descriptor. \ref cy_en_dma_trigger_type_t
 879:Generated_Source\PSoC6\pdl\drivers/peripheral/dma/cy_dma.h **** *
 880:Generated_Source\PSoC6\pdl\drivers/peripheral/dma/cy_dma.h **** * \funcusage 
 881:Generated_Source\PSoC6\pdl\drivers/peripheral/dma/cy_dma.h **** * \snippet dma\2.10\snippet\main.c snippet_Cy_DMA_Descriptor_SetterFunctions
 882:Generated_Source\PSoC6\pdl\drivers/peripheral/dma/cy_dma.h **** *
 883:Generated_Source\PSoC6\pdl\drivers/peripheral/dma/cy_dma.h **** *******************************************************************************/
 884:Generated_Source\PSoC6\pdl\drivers/peripheral/dma/cy_dma.h **** __STATIC_INLINE void Cy_DMA_Descriptor_SetTriggerOutType(cy_stc_dma_descriptor_t * descriptor, cy_e
 885:Generated_Source\PSoC6\pdl\drivers/peripheral/dma/cy_dma.h **** {
 886:Generated_Source\PSoC6\pdl\drivers/peripheral/dma/cy_dma.h ****     CY_ASSERT_L3(CY_DMA_IS_TRIG_TYPE_VALID(triggerOutType));
 887:Generated_Source\PSoC6\pdl\drivers/peripheral/dma/cy_dma.h ****     
 888:Generated_Source\PSoC6\pdl\drivers/peripheral/dma/cy_dma.h ****     CY_REG32_CLR_SET(descriptor->ctl, CY_DMA_CTL_TR_OUT_TYPE, triggerOutType);
 889:Generated_Source\PSoC6\pdl\drivers/peripheral/dma/cy_dma.h **** }
 890:Generated_Source\PSoC6\pdl\drivers/peripheral/dma/cy_dma.h **** 
 891:Generated_Source\PSoC6\pdl\drivers/peripheral/dma/cy_dma.h **** 
 892:Generated_Source\PSoC6\pdl\drivers/peripheral/dma/cy_dma.h **** /*******************************************************************************
 893:Generated_Source\PSoC6\pdl\drivers/peripheral/dma/cy_dma.h **** * Function Name: Cy_DMA_Descriptor_GetTriggerOutType
 894:Generated_Source\PSoC6\pdl\drivers/peripheral/dma/cy_dma.h **** ****************************************************************************//**
 895:Generated_Source\PSoC6\pdl\drivers/peripheral/dma/cy_dma.h **** *
 896:Generated_Source\PSoC6\pdl\drivers/peripheral/dma/cy_dma.h **** * Returns the Trigger-Out-Type parameter of the specified descriptor.
 897:Generated_Source\PSoC6\pdl\drivers/peripheral/dma/cy_dma.h **** *
 898:Generated_Source\PSoC6\pdl\drivers/peripheral/dma/cy_dma.h **** * \param descriptor
ARM GAS  C:\Users\terre\AppData\Local\Temp\ccsuDe1N.s 			page 22


 899:Generated_Source\PSoC6\pdl\drivers/peripheral/dma/cy_dma.h **** * The descriptor structure instance declared by the user/component.
 900:Generated_Source\PSoC6\pdl\drivers/peripheral/dma/cy_dma.h **** *
 901:Generated_Source\PSoC6\pdl\drivers/peripheral/dma/cy_dma.h **** * \return
 902:Generated_Source\PSoC6\pdl\drivers/peripheral/dma/cy_dma.h **** * The Trigger-Out-Type parameter \ref cy_en_dma_trigger_type_t.
 903:Generated_Source\PSoC6\pdl\drivers/peripheral/dma/cy_dma.h **** *
 904:Generated_Source\PSoC6\pdl\drivers/peripheral/dma/cy_dma.h **** * \funcusage 
 905:Generated_Source\PSoC6\pdl\drivers/peripheral/dma/cy_dma.h **** * \snippet dma\2.10\snippet\main.c snippet_Cy_DMA_Descriptor_GetterFunctions
 906:Generated_Source\PSoC6\pdl\drivers/peripheral/dma/cy_dma.h **** *  
 907:Generated_Source\PSoC6\pdl\drivers/peripheral/dma/cy_dma.h **** *******************************************************************************/
 908:Generated_Source\PSoC6\pdl\drivers/peripheral/dma/cy_dma.h **** __STATIC_INLINE cy_en_dma_trigger_type_t Cy_DMA_Descriptor_GetTriggerOutType(cy_stc_dma_descriptor_
 909:Generated_Source\PSoC6\pdl\drivers/peripheral/dma/cy_dma.h **** {
 910:Generated_Source\PSoC6\pdl\drivers/peripheral/dma/cy_dma.h ****     return((cy_en_dma_trigger_type_t) _FLD2VAL(CY_DMA_CTL_TR_OUT_TYPE, descriptor->ctl));
 911:Generated_Source\PSoC6\pdl\drivers/peripheral/dma/cy_dma.h **** }
 912:Generated_Source\PSoC6\pdl\drivers/peripheral/dma/cy_dma.h **** 
 913:Generated_Source\PSoC6\pdl\drivers/peripheral/dma/cy_dma.h **** 
 914:Generated_Source\PSoC6\pdl\drivers/peripheral/dma/cy_dma.h **** /*******************************************************************************
 915:Generated_Source\PSoC6\pdl\drivers/peripheral/dma/cy_dma.h **** * Function Name: Cy_DMA_Descriptor_SetDataSize
 916:Generated_Source\PSoC6\pdl\drivers/peripheral/dma/cy_dma.h **** ****************************************************************************//**
 917:Generated_Source\PSoC6\pdl\drivers/peripheral/dma/cy_dma.h **** *
 918:Generated_Source\PSoC6\pdl\drivers/peripheral/dma/cy_dma.h **** * Sets the Data Element Size for the specified descriptor.
 919:Generated_Source\PSoC6\pdl\drivers/peripheral/dma/cy_dma.h **** *
 920:Generated_Source\PSoC6\pdl\drivers/peripheral/dma/cy_dma.h **** * \param descriptor
 921:Generated_Source\PSoC6\pdl\drivers/peripheral/dma/cy_dma.h **** * The descriptor structure instance declared by the user/component.
 922:Generated_Source\PSoC6\pdl\drivers/peripheral/dma/cy_dma.h **** *
 923:Generated_Source\PSoC6\pdl\drivers/peripheral/dma/cy_dma.h **** * \param dataSize
 924:Generated_Source\PSoC6\pdl\drivers/peripheral/dma/cy_dma.h **** * The Data Element Size \ref cy_en_dma_data_size_t
 925:Generated_Source\PSoC6\pdl\drivers/peripheral/dma/cy_dma.h **** *
 926:Generated_Source\PSoC6\pdl\drivers/peripheral/dma/cy_dma.h **** * \funcusage 
 927:Generated_Source\PSoC6\pdl\drivers/peripheral/dma/cy_dma.h **** * \snippet dma\2.10\snippet\main.c snippet_Cy_DMA_Descriptor_SetterFunctions
 928:Generated_Source\PSoC6\pdl\drivers/peripheral/dma/cy_dma.h **** *  
 929:Generated_Source\PSoC6\pdl\drivers/peripheral/dma/cy_dma.h **** *******************************************************************************/
 930:Generated_Source\PSoC6\pdl\drivers/peripheral/dma/cy_dma.h **** __STATIC_INLINE void Cy_DMA_Descriptor_SetDataSize(cy_stc_dma_descriptor_t * descriptor, cy_en_dma_
 931:Generated_Source\PSoC6\pdl\drivers/peripheral/dma/cy_dma.h **** {
 932:Generated_Source\PSoC6\pdl\drivers/peripheral/dma/cy_dma.h ****     CY_ASSERT_L3(CY_DMA_IS_DATA_SIZE_VALID(dataSize));
 933:Generated_Source\PSoC6\pdl\drivers/peripheral/dma/cy_dma.h ****     
 934:Generated_Source\PSoC6\pdl\drivers/peripheral/dma/cy_dma.h ****     CY_REG32_CLR_SET(descriptor->ctl, CY_DMA_CTL_DATA_SIZE, dataSize);
 935:Generated_Source\PSoC6\pdl\drivers/peripheral/dma/cy_dma.h **** }
 936:Generated_Source\PSoC6\pdl\drivers/peripheral/dma/cy_dma.h **** 
 937:Generated_Source\PSoC6\pdl\drivers/peripheral/dma/cy_dma.h **** 
 938:Generated_Source\PSoC6\pdl\drivers/peripheral/dma/cy_dma.h **** /*******************************************************************************
 939:Generated_Source\PSoC6\pdl\drivers/peripheral/dma/cy_dma.h **** * Function Name: Cy_DMA_Descriptor_GetDataSize
 940:Generated_Source\PSoC6\pdl\drivers/peripheral/dma/cy_dma.h **** ****************************************************************************//**
 941:Generated_Source\PSoC6\pdl\drivers/peripheral/dma/cy_dma.h **** *
 942:Generated_Source\PSoC6\pdl\drivers/peripheral/dma/cy_dma.h **** * Returns the Data Element Size parameter of the specified descriptor.
 943:Generated_Source\PSoC6\pdl\drivers/peripheral/dma/cy_dma.h **** *
 944:Generated_Source\PSoC6\pdl\drivers/peripheral/dma/cy_dma.h **** * \param descriptor
 945:Generated_Source\PSoC6\pdl\drivers/peripheral/dma/cy_dma.h **** * The descriptor structure instance declared by the user/component.
 946:Generated_Source\PSoC6\pdl\drivers/peripheral/dma/cy_dma.h **** *
 947:Generated_Source\PSoC6\pdl\drivers/peripheral/dma/cy_dma.h **** * \return
 948:Generated_Source\PSoC6\pdl\drivers/peripheral/dma/cy_dma.h **** * The Data Element Size \ref cy_en_dma_data_size_t.
 949:Generated_Source\PSoC6\pdl\drivers/peripheral/dma/cy_dma.h **** *
 950:Generated_Source\PSoC6\pdl\drivers/peripheral/dma/cy_dma.h **** * \funcusage 
 951:Generated_Source\PSoC6\pdl\drivers/peripheral/dma/cy_dma.h **** * \snippet dma\2.10\snippet\main.c snippet_Cy_DMA_Descriptor_GetterFunctions
 952:Generated_Source\PSoC6\pdl\drivers/peripheral/dma/cy_dma.h **** *  
 953:Generated_Source\PSoC6\pdl\drivers/peripheral/dma/cy_dma.h **** *******************************************************************************/
 954:Generated_Source\PSoC6\pdl\drivers/peripheral/dma/cy_dma.h **** __STATIC_INLINE cy_en_dma_data_size_t Cy_DMA_Descriptor_GetDataSize(cy_stc_dma_descriptor_t const *
 955:Generated_Source\PSoC6\pdl\drivers/peripheral/dma/cy_dma.h **** {
ARM GAS  C:\Users\terre\AppData\Local\Temp\ccsuDe1N.s 			page 23


 956:Generated_Source\PSoC6\pdl\drivers/peripheral/dma/cy_dma.h ****     return((cy_en_dma_data_size_t) _FLD2VAL(CY_DMA_CTL_DATA_SIZE, descriptor->ctl));
 957:Generated_Source\PSoC6\pdl\drivers/peripheral/dma/cy_dma.h **** }
 958:Generated_Source\PSoC6\pdl\drivers/peripheral/dma/cy_dma.h **** 
 959:Generated_Source\PSoC6\pdl\drivers/peripheral/dma/cy_dma.h **** 
 960:Generated_Source\PSoC6\pdl\drivers/peripheral/dma/cy_dma.h **** /*******************************************************************************
 961:Generated_Source\PSoC6\pdl\drivers/peripheral/dma/cy_dma.h **** * Function Name: Cy_DMA_Descriptor_SetSrcTransferSize
 962:Generated_Source\PSoC6\pdl\drivers/peripheral/dma/cy_dma.h **** ****************************************************************************//**
 963:Generated_Source\PSoC6\pdl\drivers/peripheral/dma/cy_dma.h **** *
 964:Generated_Source\PSoC6\pdl\drivers/peripheral/dma/cy_dma.h **** * Sets the Source Transfer Size for the specified descriptor.
 965:Generated_Source\PSoC6\pdl\drivers/peripheral/dma/cy_dma.h **** *
 966:Generated_Source\PSoC6\pdl\drivers/peripheral/dma/cy_dma.h **** * \param descriptor
 967:Generated_Source\PSoC6\pdl\drivers/peripheral/dma/cy_dma.h **** * The descriptor structure instance declared by the user/component.
 968:Generated_Source\PSoC6\pdl\drivers/peripheral/dma/cy_dma.h **** *
 969:Generated_Source\PSoC6\pdl\drivers/peripheral/dma/cy_dma.h **** * \param srcTransferSize
 970:Generated_Source\PSoC6\pdl\drivers/peripheral/dma/cy_dma.h **** * The Source Transfer Size \ref cy_en_dma_transfer_size_t.
 971:Generated_Source\PSoC6\pdl\drivers/peripheral/dma/cy_dma.h **** *
 972:Generated_Source\PSoC6\pdl\drivers/peripheral/dma/cy_dma.h **** * \funcusage 
 973:Generated_Source\PSoC6\pdl\drivers/peripheral/dma/cy_dma.h **** * \snippet dma\2.10\snippet\main.c snippet_Cy_DMA_Descriptor_SetterFunctions
 974:Generated_Source\PSoC6\pdl\drivers/peripheral/dma/cy_dma.h **** *
 975:Generated_Source\PSoC6\pdl\drivers/peripheral/dma/cy_dma.h **** *******************************************************************************/
 976:Generated_Source\PSoC6\pdl\drivers/peripheral/dma/cy_dma.h **** __STATIC_INLINE void Cy_DMA_Descriptor_SetSrcTransferSize(cy_stc_dma_descriptor_t * descriptor, cy_
 977:Generated_Source\PSoC6\pdl\drivers/peripheral/dma/cy_dma.h **** {
 978:Generated_Source\PSoC6\pdl\drivers/peripheral/dma/cy_dma.h ****     CY_ASSERT_L3(CY_DMA_IS_XFER_SIZE_VALID(srcTransferSize));
 979:Generated_Source\PSoC6\pdl\drivers/peripheral/dma/cy_dma.h **** 
 980:Generated_Source\PSoC6\pdl\drivers/peripheral/dma/cy_dma.h ****     CY_REG32_CLR_SET(descriptor->ctl, CY_DMA_CTL_SRC_SIZE, srcTransferSize);
 981:Generated_Source\PSoC6\pdl\drivers/peripheral/dma/cy_dma.h **** }
 982:Generated_Source\PSoC6\pdl\drivers/peripheral/dma/cy_dma.h **** 
 983:Generated_Source\PSoC6\pdl\drivers/peripheral/dma/cy_dma.h **** 
 984:Generated_Source\PSoC6\pdl\drivers/peripheral/dma/cy_dma.h **** /*******************************************************************************
 985:Generated_Source\PSoC6\pdl\drivers/peripheral/dma/cy_dma.h **** * Function Name: Cy_DMA_Descriptor_GetSrcTransferSize
 986:Generated_Source\PSoC6\pdl\drivers/peripheral/dma/cy_dma.h **** ****************************************************************************//**
 987:Generated_Source\PSoC6\pdl\drivers/peripheral/dma/cy_dma.h **** *
 988:Generated_Source\PSoC6\pdl\drivers/peripheral/dma/cy_dma.h **** * Returns the Source Transfer Size parameter of the specified descriptor.
 989:Generated_Source\PSoC6\pdl\drivers/peripheral/dma/cy_dma.h **** *
 990:Generated_Source\PSoC6\pdl\drivers/peripheral/dma/cy_dma.h **** * \param descriptor
 991:Generated_Source\PSoC6\pdl\drivers/peripheral/dma/cy_dma.h **** * The descriptor structure instance declared by the user/component.
 992:Generated_Source\PSoC6\pdl\drivers/peripheral/dma/cy_dma.h **** *
 993:Generated_Source\PSoC6\pdl\drivers/peripheral/dma/cy_dma.h **** * \return
 994:Generated_Source\PSoC6\pdl\drivers/peripheral/dma/cy_dma.h **** * The Source Transfer Size \ref cy_en_dma_transfer_size_t.
 995:Generated_Source\PSoC6\pdl\drivers/peripheral/dma/cy_dma.h **** *
 996:Generated_Source\PSoC6\pdl\drivers/peripheral/dma/cy_dma.h **** * \funcusage 
 997:Generated_Source\PSoC6\pdl\drivers/peripheral/dma/cy_dma.h **** * \snippet dma\2.10\snippet\main.c snippet_Cy_DMA_Descriptor_GetterFunctions
 998:Generated_Source\PSoC6\pdl\drivers/peripheral/dma/cy_dma.h **** *  
 999:Generated_Source\PSoC6\pdl\drivers/peripheral/dma/cy_dma.h **** *******************************************************************************/
1000:Generated_Source\PSoC6\pdl\drivers/peripheral/dma/cy_dma.h **** __STATIC_INLINE cy_en_dma_transfer_size_t Cy_DMA_Descriptor_GetSrcTransferSize(cy_stc_dma_descripto
1001:Generated_Source\PSoC6\pdl\drivers/peripheral/dma/cy_dma.h **** {
1002:Generated_Source\PSoC6\pdl\drivers/peripheral/dma/cy_dma.h ****     return((cy_en_dma_transfer_size_t) _FLD2VAL(CY_DMA_CTL_SRC_SIZE, descriptor->ctl));
1003:Generated_Source\PSoC6\pdl\drivers/peripheral/dma/cy_dma.h **** }
1004:Generated_Source\PSoC6\pdl\drivers/peripheral/dma/cy_dma.h **** 
1005:Generated_Source\PSoC6\pdl\drivers/peripheral/dma/cy_dma.h **** 
1006:Generated_Source\PSoC6\pdl\drivers/peripheral/dma/cy_dma.h **** /*******************************************************************************
1007:Generated_Source\PSoC6\pdl\drivers/peripheral/dma/cy_dma.h **** * Function Name: Cy_DMA_Descriptor_SetDstTransferSize
1008:Generated_Source\PSoC6\pdl\drivers/peripheral/dma/cy_dma.h **** ****************************************************************************//**
1009:Generated_Source\PSoC6\pdl\drivers/peripheral/dma/cy_dma.h **** *
1010:Generated_Source\PSoC6\pdl\drivers/peripheral/dma/cy_dma.h **** * Sets the Destination Transfer Size for the specified descriptor.
1011:Generated_Source\PSoC6\pdl\drivers/peripheral/dma/cy_dma.h **** *
1012:Generated_Source\PSoC6\pdl\drivers/peripheral/dma/cy_dma.h **** * \param descriptor
ARM GAS  C:\Users\terre\AppData\Local\Temp\ccsuDe1N.s 			page 24


1013:Generated_Source\PSoC6\pdl\drivers/peripheral/dma/cy_dma.h **** * The descriptor structure instance declared by the user/component.
1014:Generated_Source\PSoC6\pdl\drivers/peripheral/dma/cy_dma.h **** *
1015:Generated_Source\PSoC6\pdl\drivers/peripheral/dma/cy_dma.h **** * \param dstTransferSize
1016:Generated_Source\PSoC6\pdl\drivers/peripheral/dma/cy_dma.h **** * The Destination Transfer Size \ref cy_en_dma_transfer_size_t.
1017:Generated_Source\PSoC6\pdl\drivers/peripheral/dma/cy_dma.h **** *
1018:Generated_Source\PSoC6\pdl\drivers/peripheral/dma/cy_dma.h **** * \funcusage 
1019:Generated_Source\PSoC6\pdl\drivers/peripheral/dma/cy_dma.h **** * \snippet dma\2.10\snippet\main.c snippet_Cy_DMA_Descriptor_SetterFunctions
1020:Generated_Source\PSoC6\pdl\drivers/peripheral/dma/cy_dma.h **** *
1021:Generated_Source\PSoC6\pdl\drivers/peripheral/dma/cy_dma.h **** *******************************************************************************/
1022:Generated_Source\PSoC6\pdl\drivers/peripheral/dma/cy_dma.h **** __STATIC_INLINE void Cy_DMA_Descriptor_SetDstTransferSize(cy_stc_dma_descriptor_t * descriptor, cy_
1023:Generated_Source\PSoC6\pdl\drivers/peripheral/dma/cy_dma.h **** {
1024:Generated_Source\PSoC6\pdl\drivers/peripheral/dma/cy_dma.h ****     CY_ASSERT_L3(CY_DMA_IS_XFER_SIZE_VALID(dstTransferSize));
1025:Generated_Source\PSoC6\pdl\drivers/peripheral/dma/cy_dma.h ****     
1026:Generated_Source\PSoC6\pdl\drivers/peripheral/dma/cy_dma.h ****     CY_REG32_CLR_SET(descriptor->ctl, CY_DMA_CTL_DST_SIZE, dstTransferSize);
1027:Generated_Source\PSoC6\pdl\drivers/peripheral/dma/cy_dma.h **** }
1028:Generated_Source\PSoC6\pdl\drivers/peripheral/dma/cy_dma.h **** 
1029:Generated_Source\PSoC6\pdl\drivers/peripheral/dma/cy_dma.h **** 
1030:Generated_Source\PSoC6\pdl\drivers/peripheral/dma/cy_dma.h **** /*******************************************************************************
1031:Generated_Source\PSoC6\pdl\drivers/peripheral/dma/cy_dma.h **** * Function Name: Cy_DMA_Descriptor_GetDstTransferSize
1032:Generated_Source\PSoC6\pdl\drivers/peripheral/dma/cy_dma.h **** ****************************************************************************//**
1033:Generated_Source\PSoC6\pdl\drivers/peripheral/dma/cy_dma.h **** *
1034:Generated_Source\PSoC6\pdl\drivers/peripheral/dma/cy_dma.h **** * Returns the Destination Transfer Size parameter of the specified descriptor.
1035:Generated_Source\PSoC6\pdl\drivers/peripheral/dma/cy_dma.h **** *
1036:Generated_Source\PSoC6\pdl\drivers/peripheral/dma/cy_dma.h **** * \param descriptor
1037:Generated_Source\PSoC6\pdl\drivers/peripheral/dma/cy_dma.h **** * The descriptor structure instance declared by the user/component.
1038:Generated_Source\PSoC6\pdl\drivers/peripheral/dma/cy_dma.h **** *
1039:Generated_Source\PSoC6\pdl\drivers/peripheral/dma/cy_dma.h **** * \return
1040:Generated_Source\PSoC6\pdl\drivers/peripheral/dma/cy_dma.h **** * The Destination Transfer Size \ref cy_en_dma_transfer_size_t.
1041:Generated_Source\PSoC6\pdl\drivers/peripheral/dma/cy_dma.h **** *
1042:Generated_Source\PSoC6\pdl\drivers/peripheral/dma/cy_dma.h **** * \funcusage 
1043:Generated_Source\PSoC6\pdl\drivers/peripheral/dma/cy_dma.h **** * \snippet dma\2.10\snippet\main.c snippet_Cy_DMA_Descriptor_GetterFunctions
1044:Generated_Source\PSoC6\pdl\drivers/peripheral/dma/cy_dma.h **** *  
1045:Generated_Source\PSoC6\pdl\drivers/peripheral/dma/cy_dma.h **** *******************************************************************************/
1046:Generated_Source\PSoC6\pdl\drivers/peripheral/dma/cy_dma.h **** __STATIC_INLINE cy_en_dma_transfer_size_t Cy_DMA_Descriptor_GetDstTransferSize(cy_stc_dma_descripto
1047:Generated_Source\PSoC6\pdl\drivers/peripheral/dma/cy_dma.h **** {
1048:Generated_Source\PSoC6\pdl\drivers/peripheral/dma/cy_dma.h ****     return((cy_en_dma_transfer_size_t) _FLD2VAL(CY_DMA_CTL_DST_SIZE, descriptor->ctl));
1049:Generated_Source\PSoC6\pdl\drivers/peripheral/dma/cy_dma.h **** }
1050:Generated_Source\PSoC6\pdl\drivers/peripheral/dma/cy_dma.h **** 
1051:Generated_Source\PSoC6\pdl\drivers/peripheral/dma/cy_dma.h **** 
1052:Generated_Source\PSoC6\pdl\drivers/peripheral/dma/cy_dma.h **** /*******************************************************************************
1053:Generated_Source\PSoC6\pdl\drivers/peripheral/dma/cy_dma.h **** * Function Name: Cy_DMA_Descriptor_SetRetrigger
1054:Generated_Source\PSoC6\pdl\drivers/peripheral/dma/cy_dma.h **** ****************************************************************************//**
1055:Generated_Source\PSoC6\pdl\drivers/peripheral/dma/cy_dma.h **** *
1056:Generated_Source\PSoC6\pdl\drivers/peripheral/dma/cy_dma.h **** * Sets the retrigger value that specifies whether the controller should 
1057:Generated_Source\PSoC6\pdl\drivers/peripheral/dma/cy_dma.h **** * wait for the input trigger to be deactivated.
1058:Generated_Source\PSoC6\pdl\drivers/peripheral/dma/cy_dma.h **** *
1059:Generated_Source\PSoC6\pdl\drivers/peripheral/dma/cy_dma.h **** * \param descriptor
1060:Generated_Source\PSoC6\pdl\drivers/peripheral/dma/cy_dma.h **** * The descriptor structure instance declared by the user/component.
1061:Generated_Source\PSoC6\pdl\drivers/peripheral/dma/cy_dma.h **** *
1062:Generated_Source\PSoC6\pdl\drivers/peripheral/dma/cy_dma.h **** * \param retrigger 
1063:Generated_Source\PSoC6\pdl\drivers/peripheral/dma/cy_dma.h **** * The \ref cy_en_dma_retrigger_t parameter specifies whether the controller
1064:Generated_Source\PSoC6\pdl\drivers/peripheral/dma/cy_dma.h **** * should wait for the input trigger to be deactivated.
1065:Generated_Source\PSoC6\pdl\drivers/peripheral/dma/cy_dma.h **** *
1066:Generated_Source\PSoC6\pdl\drivers/peripheral/dma/cy_dma.h **** * \funcusage 
1067:Generated_Source\PSoC6\pdl\drivers/peripheral/dma/cy_dma.h **** * \snippet dma\2.10\snippet\main.c snippet_Cy_DMA_Descriptor_SetterFunctions
1068:Generated_Source\PSoC6\pdl\drivers/peripheral/dma/cy_dma.h **** *
1069:Generated_Source\PSoC6\pdl\drivers/peripheral/dma/cy_dma.h **** *******************************************************************************/
ARM GAS  C:\Users\terre\AppData\Local\Temp\ccsuDe1N.s 			page 25


1070:Generated_Source\PSoC6\pdl\drivers/peripheral/dma/cy_dma.h **** __STATIC_INLINE void Cy_DMA_Descriptor_SetRetrigger(cy_stc_dma_descriptor_t * descriptor, cy_en_dma
1071:Generated_Source\PSoC6\pdl\drivers/peripheral/dma/cy_dma.h **** {
1072:Generated_Source\PSoC6\pdl\drivers/peripheral/dma/cy_dma.h ****     CY_ASSERT_L3(CY_DMA_IS_RETRIG_VALID(retrigger));
1073:Generated_Source\PSoC6\pdl\drivers/peripheral/dma/cy_dma.h ****     
1074:Generated_Source\PSoC6\pdl\drivers/peripheral/dma/cy_dma.h ****     CY_REG32_CLR_SET(descriptor->ctl, CY_DMA_CTL_RETRIG, retrigger);
1075:Generated_Source\PSoC6\pdl\drivers/peripheral/dma/cy_dma.h **** }
1076:Generated_Source\PSoC6\pdl\drivers/peripheral/dma/cy_dma.h **** 
1077:Generated_Source\PSoC6\pdl\drivers/peripheral/dma/cy_dma.h **** 
1078:Generated_Source\PSoC6\pdl\drivers/peripheral/dma/cy_dma.h **** /*******************************************************************************
1079:Generated_Source\PSoC6\pdl\drivers/peripheral/dma/cy_dma.h **** * Function Name: Cy_DMA_Descriptor_GetRetrigger
1080:Generated_Source\PSoC6\pdl\drivers/peripheral/dma/cy_dma.h **** ****************************************************************************//**
1081:Generated_Source\PSoC6\pdl\drivers/peripheral/dma/cy_dma.h **** *
1082:Generated_Source\PSoC6\pdl\drivers/peripheral/dma/cy_dma.h **** * Returns a value that specifies whether the controller should 
1083:Generated_Source\PSoC6\pdl\drivers/peripheral/dma/cy_dma.h **** * wait for the input trigger to be deactivated.
1084:Generated_Source\PSoC6\pdl\drivers/peripheral/dma/cy_dma.h **** *
1085:Generated_Source\PSoC6\pdl\drivers/peripheral/dma/cy_dma.h **** * \param descriptor
1086:Generated_Source\PSoC6\pdl\drivers/peripheral/dma/cy_dma.h **** * The descriptor structure instance declared by the user/component.
1087:Generated_Source\PSoC6\pdl\drivers/peripheral/dma/cy_dma.h **** *
1088:Generated_Source\PSoC6\pdl\drivers/peripheral/dma/cy_dma.h **** * \return
1089:Generated_Source\PSoC6\pdl\drivers/peripheral/dma/cy_dma.h **** * The Retrigger setting \ref cy_en_dma_retrigger_t.
1090:Generated_Source\PSoC6\pdl\drivers/peripheral/dma/cy_dma.h **** *
1091:Generated_Source\PSoC6\pdl\drivers/peripheral/dma/cy_dma.h **** * \funcusage 
1092:Generated_Source\PSoC6\pdl\drivers/peripheral/dma/cy_dma.h **** * \snippet dma\2.10\snippet\main.c snippet_Cy_DMA_Descriptor_GetterFunctions
1093:Generated_Source\PSoC6\pdl\drivers/peripheral/dma/cy_dma.h **** *  
1094:Generated_Source\PSoC6\pdl\drivers/peripheral/dma/cy_dma.h **** *******************************************************************************/
1095:Generated_Source\PSoC6\pdl\drivers/peripheral/dma/cy_dma.h **** __STATIC_INLINE cy_en_dma_retrigger_t Cy_DMA_Descriptor_GetRetrigger(cy_stc_dma_descriptor_t const 
1096:Generated_Source\PSoC6\pdl\drivers/peripheral/dma/cy_dma.h **** {
1097:Generated_Source\PSoC6\pdl\drivers/peripheral/dma/cy_dma.h ****     return((cy_en_dma_retrigger_t) _FLD2VAL(CY_DMA_CTL_RETRIG, descriptor->ctl));
1098:Generated_Source\PSoC6\pdl\drivers/peripheral/dma/cy_dma.h **** }
1099:Generated_Source\PSoC6\pdl\drivers/peripheral/dma/cy_dma.h **** 
1100:Generated_Source\PSoC6\pdl\drivers/peripheral/dma/cy_dma.h **** 
1101:Generated_Source\PSoC6\pdl\drivers/peripheral/dma/cy_dma.h **** /*******************************************************************************
1102:Generated_Source\PSoC6\pdl\drivers/peripheral/dma/cy_dma.h **** * Function Name: Cy_DMA_Descriptor_GetDescriptorType
1103:Generated_Source\PSoC6\pdl\drivers/peripheral/dma/cy_dma.h **** ****************************************************************************//**
1104:Generated_Source\PSoC6\pdl\drivers/peripheral/dma/cy_dma.h **** *
1105:Generated_Source\PSoC6\pdl\drivers/peripheral/dma/cy_dma.h **** * Returns the descriptor's type of the specified descriptor.
1106:Generated_Source\PSoC6\pdl\drivers/peripheral/dma/cy_dma.h **** *
1107:Generated_Source\PSoC6\pdl\drivers/peripheral/dma/cy_dma.h **** * \param descriptor
1108:Generated_Source\PSoC6\pdl\drivers/peripheral/dma/cy_dma.h **** * The descriptor structure instance declared by the user/component.
1109:Generated_Source\PSoC6\pdl\drivers/peripheral/dma/cy_dma.h **** *
1110:Generated_Source\PSoC6\pdl\drivers/peripheral/dma/cy_dma.h **** * \return
1111:Generated_Source\PSoC6\pdl\drivers/peripheral/dma/cy_dma.h **** * The descriptor type \ref cy_en_dma_descriptor_type_t.
1112:Generated_Source\PSoC6\pdl\drivers/peripheral/dma/cy_dma.h **** *
1113:Generated_Source\PSoC6\pdl\drivers/peripheral/dma/cy_dma.h **** * \funcusage 
1114:Generated_Source\PSoC6\pdl\drivers/peripheral/dma/cy_dma.h **** * \snippet dma\2.10\snippet\main.c snippet_Cy_DMA_Descriptor_GetterFunctions
1115:Generated_Source\PSoC6\pdl\drivers/peripheral/dma/cy_dma.h **** *  
1116:Generated_Source\PSoC6\pdl\drivers/peripheral/dma/cy_dma.h **** *******************************************************************************/
1117:Generated_Source\PSoC6\pdl\drivers/peripheral/dma/cy_dma.h **** __STATIC_INLINE cy_en_dma_descriptor_type_t Cy_DMA_Descriptor_GetDescriptorType(cy_stc_dma_descript
1118:Generated_Source\PSoC6\pdl\drivers/peripheral/dma/cy_dma.h **** {
1119:Generated_Source\PSoC6\pdl\drivers/peripheral/dma/cy_dma.h ****     return((cy_en_dma_descriptor_type_t) _FLD2VAL(CY_DMA_CTL_TYPE, descriptor->ctl));
1120:Generated_Source\PSoC6\pdl\drivers/peripheral/dma/cy_dma.h **** }
1121:Generated_Source\PSoC6\pdl\drivers/peripheral/dma/cy_dma.h **** 
1122:Generated_Source\PSoC6\pdl\drivers/peripheral/dma/cy_dma.h **** 
1123:Generated_Source\PSoC6\pdl\drivers/peripheral/dma/cy_dma.h **** /*******************************************************************************
1124:Generated_Source\PSoC6\pdl\drivers/peripheral/dma/cy_dma.h **** * Function Name: Cy_DMA_Descriptor_SetChannelState
1125:Generated_Source\PSoC6\pdl\drivers/peripheral/dma/cy_dma.h **** ****************************************************************************//**
1126:Generated_Source\PSoC6\pdl\drivers/peripheral/dma/cy_dma.h **** *
ARM GAS  C:\Users\terre\AppData\Local\Temp\ccsuDe1N.s 			page 26


1127:Generated_Source\PSoC6\pdl\drivers/peripheral/dma/cy_dma.h **** * Sets the channel state on completion of the specified descriptor.
1128:Generated_Source\PSoC6\pdl\drivers/peripheral/dma/cy_dma.h **** *
1129:Generated_Source\PSoC6\pdl\drivers/peripheral/dma/cy_dma.h **** * \param descriptor
1130:Generated_Source\PSoC6\pdl\drivers/peripheral/dma/cy_dma.h **** * The descriptor structure instance declared by the user/component.
1131:Generated_Source\PSoC6\pdl\drivers/peripheral/dma/cy_dma.h **** *
1132:Generated_Source\PSoC6\pdl\drivers/peripheral/dma/cy_dma.h **** * \param channelState 
1133:Generated_Source\PSoC6\pdl\drivers/peripheral/dma/cy_dma.h **** * The channel state \ref cy_en_dma_channel_state_t.
1134:Generated_Source\PSoC6\pdl\drivers/peripheral/dma/cy_dma.h **** *
1135:Generated_Source\PSoC6\pdl\drivers/peripheral/dma/cy_dma.h **** * \funcusage 
1136:Generated_Source\PSoC6\pdl\drivers/peripheral/dma/cy_dma.h **** * \snippet dma\2.10\snippet\main.c snippet_Cy_DMA_Descriptor_SetterFunctions
1137:Generated_Source\PSoC6\pdl\drivers/peripheral/dma/cy_dma.h **** *
1138:Generated_Source\PSoC6\pdl\drivers/peripheral/dma/cy_dma.h **** *******************************************************************************/
1139:Generated_Source\PSoC6\pdl\drivers/peripheral/dma/cy_dma.h **** __STATIC_INLINE void Cy_DMA_Descriptor_SetChannelState(cy_stc_dma_descriptor_t * descriptor, cy_en_
1140:Generated_Source\PSoC6\pdl\drivers/peripheral/dma/cy_dma.h **** {
1141:Generated_Source\PSoC6\pdl\drivers/peripheral/dma/cy_dma.h ****     CY_ASSERT_L3(CY_DMA_IS_CHANNEL_STATE_VALID(channelState));
1142:Generated_Source\PSoC6\pdl\drivers/peripheral/dma/cy_dma.h ****     
1143:Generated_Source\PSoC6\pdl\drivers/peripheral/dma/cy_dma.h ****     CY_REG32_CLR_SET(descriptor->ctl, CY_DMA_CTL_CH_DISABLE, channelState);
1144:Generated_Source\PSoC6\pdl\drivers/peripheral/dma/cy_dma.h **** }
1145:Generated_Source\PSoC6\pdl\drivers/peripheral/dma/cy_dma.h **** 
1146:Generated_Source\PSoC6\pdl\drivers/peripheral/dma/cy_dma.h **** 
1147:Generated_Source\PSoC6\pdl\drivers/peripheral/dma/cy_dma.h **** /*******************************************************************************
1148:Generated_Source\PSoC6\pdl\drivers/peripheral/dma/cy_dma.h **** * Function Name: Cy_DMA_Descriptor_GetChannelState
1149:Generated_Source\PSoC6\pdl\drivers/peripheral/dma/cy_dma.h **** ****************************************************************************//**
1150:Generated_Source\PSoC6\pdl\drivers/peripheral/dma/cy_dma.h **** *
1151:Generated_Source\PSoC6\pdl\drivers/peripheral/dma/cy_dma.h **** * Returns the channel state on completion of the specified descriptor.
1152:Generated_Source\PSoC6\pdl\drivers/peripheral/dma/cy_dma.h **** *
1153:Generated_Source\PSoC6\pdl\drivers/peripheral/dma/cy_dma.h **** * \param descriptor
1154:Generated_Source\PSoC6\pdl\drivers/peripheral/dma/cy_dma.h **** * The descriptor structure instance declared by the user/component.
1155:Generated_Source\PSoC6\pdl\drivers/peripheral/dma/cy_dma.h **** *
1156:Generated_Source\PSoC6\pdl\drivers/peripheral/dma/cy_dma.h **** * \return
1157:Generated_Source\PSoC6\pdl\drivers/peripheral/dma/cy_dma.h **** * The Channel State setting \ref cy_en_dma_channel_state_t.
1158:Generated_Source\PSoC6\pdl\drivers/peripheral/dma/cy_dma.h **** *
1159:Generated_Source\PSoC6\pdl\drivers/peripheral/dma/cy_dma.h **** * \funcusage 
1160:Generated_Source\PSoC6\pdl\drivers/peripheral/dma/cy_dma.h **** * \snippet dma\2.10\snippet\main.c snippet_Cy_DMA_Descriptor_GetterFunctions
1161:Generated_Source\PSoC6\pdl\drivers/peripheral/dma/cy_dma.h **** *  
1162:Generated_Source\PSoC6\pdl\drivers/peripheral/dma/cy_dma.h **** *******************************************************************************/
1163:Generated_Source\PSoC6\pdl\drivers/peripheral/dma/cy_dma.h **** __STATIC_INLINE cy_en_dma_channel_state_t Cy_DMA_Descriptor_GetChannelState(cy_stc_dma_descriptor_t
1164:Generated_Source\PSoC6\pdl\drivers/peripheral/dma/cy_dma.h **** {
1165:Generated_Source\PSoC6\pdl\drivers/peripheral/dma/cy_dma.h ****     return((cy_en_dma_channel_state_t) _FLD2VAL(CY_DMA_CTL_CH_DISABLE, descriptor->ctl));
1166:Generated_Source\PSoC6\pdl\drivers/peripheral/dma/cy_dma.h **** }
1167:Generated_Source\PSoC6\pdl\drivers/peripheral/dma/cy_dma.h **** 
1168:Generated_Source\PSoC6\pdl\drivers/peripheral/dma/cy_dma.h **** 
1169:Generated_Source\PSoC6\pdl\drivers/peripheral/dma/cy_dma.h **** /*******************************************************************************
1170:Generated_Source\PSoC6\pdl\drivers/peripheral/dma/cy_dma.h **** * Function Name: Cy_DMA_Descriptor_SetXloopDataCount
1171:Generated_Source\PSoC6\pdl\drivers/peripheral/dma/cy_dma.h **** ****************************************************************************//**
1172:Generated_Source\PSoC6\pdl\drivers/peripheral/dma/cy_dma.h **** *
1173:Generated_Source\PSoC6\pdl\drivers/peripheral/dma/cy_dma.h **** * Sets the number of data elements to transfer in the X loop
1174:Generated_Source\PSoC6\pdl\drivers/peripheral/dma/cy_dma.h **** * for the specified descriptor (for 1D or 2D descriptors only).
1175:Generated_Source\PSoC6\pdl\drivers/peripheral/dma/cy_dma.h **** *
1176:Generated_Source\PSoC6\pdl\drivers/peripheral/dma/cy_dma.h **** * \param descriptor
1177:Generated_Source\PSoC6\pdl\drivers/peripheral/dma/cy_dma.h **** * The descriptor structure instance declared by the user/component.
1178:Generated_Source\PSoC6\pdl\drivers/peripheral/dma/cy_dma.h **** *
1179:Generated_Source\PSoC6\pdl\drivers/peripheral/dma/cy_dma.h **** * \param xCount
1180:Generated_Source\PSoC6\pdl\drivers/peripheral/dma/cy_dma.h **** * The number of data elements to transfer in the X loop. Valid range is 1 ... 256.
1181:Generated_Source\PSoC6\pdl\drivers/peripheral/dma/cy_dma.h **** *
1182:Generated_Source\PSoC6\pdl\drivers/peripheral/dma/cy_dma.h **** * \funcusage 
1183:Generated_Source\PSoC6\pdl\drivers/peripheral/dma/cy_dma.h **** * \snippet dma\2.10\snippet\main.c snippet_Cy_DMA_Descriptor_SetterFunctions
ARM GAS  C:\Users\terre\AppData\Local\Temp\ccsuDe1N.s 			page 27


1184:Generated_Source\PSoC6\pdl\drivers/peripheral/dma/cy_dma.h **** *  
1185:Generated_Source\PSoC6\pdl\drivers/peripheral/dma/cy_dma.h **** *******************************************************************************/
1186:Generated_Source\PSoC6\pdl\drivers/peripheral/dma/cy_dma.h **** __STATIC_INLINE void Cy_DMA_Descriptor_SetXloopDataCount(cy_stc_dma_descriptor_t * descriptor, uint
1187:Generated_Source\PSoC6\pdl\drivers/peripheral/dma/cy_dma.h **** {
1188:Generated_Source\PSoC6\pdl\drivers/peripheral/dma/cy_dma.h ****     CY_ASSERT_L1(CY_DMA_SINGLE_TRANSFER != Cy_DMA_Descriptor_GetDescriptorType(descriptor));
1189:Generated_Source\PSoC6\pdl\drivers/peripheral/dma/cy_dma.h ****     CY_ASSERT_L2(CY_DMA_IS_LOOP_COUNT_VALID(xCount));
1190:Generated_Source\PSoC6\pdl\drivers/peripheral/dma/cy_dma.h ****     /* Convert the data count from the user's range (1-256) into the machine range (0-255). */
1191:Generated_Source\PSoC6\pdl\drivers/peripheral/dma/cy_dma.h ****     CY_REG32_CLR_SET(descriptor->xCtl, CY_DMA_CTL_COUNT, xCount - 1UL);
1192:Generated_Source\PSoC6\pdl\drivers/peripheral/dma/cy_dma.h **** }
1193:Generated_Source\PSoC6\pdl\drivers/peripheral/dma/cy_dma.h **** 
1194:Generated_Source\PSoC6\pdl\drivers/peripheral/dma/cy_dma.h **** 
1195:Generated_Source\PSoC6\pdl\drivers/peripheral/dma/cy_dma.h **** /*******************************************************************************
1196:Generated_Source\PSoC6\pdl\drivers/peripheral/dma/cy_dma.h **** * Function Name: Cy_DMA_Descriptor_GetXloopDataCount
1197:Generated_Source\PSoC6\pdl\drivers/peripheral/dma/cy_dma.h **** ****************************************************************************//**
1198:Generated_Source\PSoC6\pdl\drivers/peripheral/dma/cy_dma.h **** *
1199:Generated_Source\PSoC6\pdl\drivers/peripheral/dma/cy_dma.h **** * Returns the number of data elements for the X loop of the specified
1200:Generated_Source\PSoC6\pdl\drivers/peripheral/dma/cy_dma.h **** * descriptor (for 1D or 2D descriptors only).
1201:Generated_Source\PSoC6\pdl\drivers/peripheral/dma/cy_dma.h **** *
1202:Generated_Source\PSoC6\pdl\drivers/peripheral/dma/cy_dma.h **** * \param descriptor
1203:Generated_Source\PSoC6\pdl\drivers/peripheral/dma/cy_dma.h **** * The descriptor structure instance declared by the user/component.
1204:Generated_Source\PSoC6\pdl\drivers/peripheral/dma/cy_dma.h **** *
1205:Generated_Source\PSoC6\pdl\drivers/peripheral/dma/cy_dma.h **** * \return
1206:Generated_Source\PSoC6\pdl\drivers/peripheral/dma/cy_dma.h **** * The number of data elements to transfer in the X loop. The range is 1 ... 256.
1207:Generated_Source\PSoC6\pdl\drivers/peripheral/dma/cy_dma.h **** *
1208:Generated_Source\PSoC6\pdl\drivers/peripheral/dma/cy_dma.h **** * \funcusage 
1209:Generated_Source\PSoC6\pdl\drivers/peripheral/dma/cy_dma.h **** * \snippet dma\2.10\snippet\main.c snippet_Cy_DMA_Descriptor_GetterFunctions
1210:Generated_Source\PSoC6\pdl\drivers/peripheral/dma/cy_dma.h **** *  
1211:Generated_Source\PSoC6\pdl\drivers/peripheral/dma/cy_dma.h **** *******************************************************************************/
1212:Generated_Source\PSoC6\pdl\drivers/peripheral/dma/cy_dma.h **** __STATIC_INLINE uint32_t Cy_DMA_Descriptor_GetXloopDataCount(cy_stc_dma_descriptor_t const * descri
1213:Generated_Source\PSoC6\pdl\drivers/peripheral/dma/cy_dma.h **** {
1214:Generated_Source\PSoC6\pdl\drivers/peripheral/dma/cy_dma.h ****     CY_ASSERT_L1(CY_DMA_SINGLE_TRANSFER != Cy_DMA_Descriptor_GetDescriptorType(descriptor));
1215:Generated_Source\PSoC6\pdl\drivers/peripheral/dma/cy_dma.h ****     /* Convert the data count from the machine range (0-255) into the user's range (1-256). */
1216:Generated_Source\PSoC6\pdl\drivers/peripheral/dma/cy_dma.h ****     return (_FLD2VAL(CY_DMA_CTL_COUNT, descriptor->xCtl) + 1UL);
1217:Generated_Source\PSoC6\pdl\drivers/peripheral/dma/cy_dma.h **** }
1218:Generated_Source\PSoC6\pdl\drivers/peripheral/dma/cy_dma.h **** 
1219:Generated_Source\PSoC6\pdl\drivers/peripheral/dma/cy_dma.h **** 
1220:Generated_Source\PSoC6\pdl\drivers/peripheral/dma/cy_dma.h **** /*******************************************************************************
1221:Generated_Source\PSoC6\pdl\drivers/peripheral/dma/cy_dma.h **** * Function Name: Cy_DMA_Descriptor_SetXloopSrcIncrement
1222:Generated_Source\PSoC6\pdl\drivers/peripheral/dma/cy_dma.h **** ****************************************************************************//**
1223:Generated_Source\PSoC6\pdl\drivers/peripheral/dma/cy_dma.h **** *
1224:Generated_Source\PSoC6\pdl\drivers/peripheral/dma/cy_dma.h **** * Sets the source increment parameter for the X loop of the specified
1225:Generated_Source\PSoC6\pdl\drivers/peripheral/dma/cy_dma.h **** * descriptor (for 1D or 2D descriptors only).
1226:Generated_Source\PSoC6\pdl\drivers/peripheral/dma/cy_dma.h **** *
1227:Generated_Source\PSoC6\pdl\drivers/peripheral/dma/cy_dma.h **** * \param descriptor
1228:Generated_Source\PSoC6\pdl\drivers/peripheral/dma/cy_dma.h **** * The descriptor structure instance declared by the user/component.
1229:Generated_Source\PSoC6\pdl\drivers/peripheral/dma/cy_dma.h **** *
1230:Generated_Source\PSoC6\pdl\drivers/peripheral/dma/cy_dma.h **** * \param srcXincrement
1231:Generated_Source\PSoC6\pdl\drivers/peripheral/dma/cy_dma.h **** * The value of the source increment. The valid range is -2048 ... 2047.
1232:Generated_Source\PSoC6\pdl\drivers/peripheral/dma/cy_dma.h **** *
1233:Generated_Source\PSoC6\pdl\drivers/peripheral/dma/cy_dma.h **** * \funcusage 
1234:Generated_Source\PSoC6\pdl\drivers/peripheral/dma/cy_dma.h **** * \snippet dma\2.10\snippet\main.c snippet_Cy_DMA_Descriptor_SetterFunctions
1235:Generated_Source\PSoC6\pdl\drivers/peripheral/dma/cy_dma.h **** *
1236:Generated_Source\PSoC6\pdl\drivers/peripheral/dma/cy_dma.h **** *******************************************************************************/
1237:Generated_Source\PSoC6\pdl\drivers/peripheral/dma/cy_dma.h **** __STATIC_INLINE void Cy_DMA_Descriptor_SetXloopSrcIncrement(cy_stc_dma_descriptor_t * descriptor, i
1238:Generated_Source\PSoC6\pdl\drivers/peripheral/dma/cy_dma.h **** {
1239:Generated_Source\PSoC6\pdl\drivers/peripheral/dma/cy_dma.h ****     CY_ASSERT_L1(CY_DMA_SINGLE_TRANSFER != Cy_DMA_Descriptor_GetDescriptorType(descriptor));
1240:Generated_Source\PSoC6\pdl\drivers/peripheral/dma/cy_dma.h ****     CY_ASSERT_L2(CY_DMA_IS_LOOP_INCR_VALID(srcXincrement));
ARM GAS  C:\Users\terre\AppData\Local\Temp\ccsuDe1N.s 			page 28


1241:Generated_Source\PSoC6\pdl\drivers/peripheral/dma/cy_dma.h ****     
1242:Generated_Source\PSoC6\pdl\drivers/peripheral/dma/cy_dma.h ****     CY_REG32_CLR_SET(descriptor->xCtl, CY_DMA_CTL_SRC_INCR, srcXincrement);
1243:Generated_Source\PSoC6\pdl\drivers/peripheral/dma/cy_dma.h **** }
1244:Generated_Source\PSoC6\pdl\drivers/peripheral/dma/cy_dma.h **** 
1245:Generated_Source\PSoC6\pdl\drivers/peripheral/dma/cy_dma.h **** 
1246:Generated_Source\PSoC6\pdl\drivers/peripheral/dma/cy_dma.h **** /*******************************************************************************
1247:Generated_Source\PSoC6\pdl\drivers/peripheral/dma/cy_dma.h **** * Function Name: Cy_DMA_Descriptor_GetXloopSrcIncrement
1248:Generated_Source\PSoC6\pdl\drivers/peripheral/dma/cy_dma.h **** ****************************************************************************//**
1249:Generated_Source\PSoC6\pdl\drivers/peripheral/dma/cy_dma.h **** *
1250:Generated_Source\PSoC6\pdl\drivers/peripheral/dma/cy_dma.h **** * Returns the source increment parameter for the X loop of the specified
1251:Generated_Source\PSoC6\pdl\drivers/peripheral/dma/cy_dma.h **** * descriptor (for 1D or 2D descriptors only).
1252:Generated_Source\PSoC6\pdl\drivers/peripheral/dma/cy_dma.h **** *
1253:Generated_Source\PSoC6\pdl\drivers/peripheral/dma/cy_dma.h **** * \param descriptor
1254:Generated_Source\PSoC6\pdl\drivers/peripheral/dma/cy_dma.h **** * The descriptor structure instance declared by the user/component.
1255:Generated_Source\PSoC6\pdl\drivers/peripheral/dma/cy_dma.h **** *
1256:Generated_Source\PSoC6\pdl\drivers/peripheral/dma/cy_dma.h **** * \return
1257:Generated_Source\PSoC6\pdl\drivers/peripheral/dma/cy_dma.h **** * The value of the source increment. The range is -2048 ... 2047.
1258:Generated_Source\PSoC6\pdl\drivers/peripheral/dma/cy_dma.h **** *
1259:Generated_Source\PSoC6\pdl\drivers/peripheral/dma/cy_dma.h **** * \funcusage 
1260:Generated_Source\PSoC6\pdl\drivers/peripheral/dma/cy_dma.h **** * \snippet dma\2.10\snippet\main.c snippet_Cy_DMA_Descriptor_GetterFunctions
1261:Generated_Source\PSoC6\pdl\drivers/peripheral/dma/cy_dma.h **** *  
1262:Generated_Source\PSoC6\pdl\drivers/peripheral/dma/cy_dma.h **** *******************************************************************************/
1263:Generated_Source\PSoC6\pdl\drivers/peripheral/dma/cy_dma.h **** __STATIC_INLINE int32_t Cy_DMA_Descriptor_GetXloopSrcIncrement(cy_stc_dma_descriptor_t const * desc
1264:Generated_Source\PSoC6\pdl\drivers/peripheral/dma/cy_dma.h **** {
1265:Generated_Source\PSoC6\pdl\drivers/peripheral/dma/cy_dma.h ****     CY_ASSERT_L1(CY_DMA_SINGLE_TRANSFER != Cy_DMA_Descriptor_GetDescriptorType(descriptor));
1266:Generated_Source\PSoC6\pdl\drivers/peripheral/dma/cy_dma.h ****     
1267:Generated_Source\PSoC6\pdl\drivers/peripheral/dma/cy_dma.h ****     return ((int32_t) _FLD2VAL(CY_DMA_CTL_SRC_INCR, descriptor->xCtl));
1268:Generated_Source\PSoC6\pdl\drivers/peripheral/dma/cy_dma.h **** }
1269:Generated_Source\PSoC6\pdl\drivers/peripheral/dma/cy_dma.h **** 
1270:Generated_Source\PSoC6\pdl\drivers/peripheral/dma/cy_dma.h **** 
1271:Generated_Source\PSoC6\pdl\drivers/peripheral/dma/cy_dma.h **** /*******************************************************************************
1272:Generated_Source\PSoC6\pdl\drivers/peripheral/dma/cy_dma.h **** * Function Name: Cy_DMA_Descriptor_SetXloopDstIncrement
1273:Generated_Source\PSoC6\pdl\drivers/peripheral/dma/cy_dma.h **** ****************************************************************************//**
1274:Generated_Source\PSoC6\pdl\drivers/peripheral/dma/cy_dma.h **** *
1275:Generated_Source\PSoC6\pdl\drivers/peripheral/dma/cy_dma.h **** * Sets the destination increment parameter for the X loop for the specified
1276:Generated_Source\PSoC6\pdl\drivers/peripheral/dma/cy_dma.h **** * descriptor (for 1D or 2D descriptors only).
1277:Generated_Source\PSoC6\pdl\drivers/peripheral/dma/cy_dma.h **** *
1278:Generated_Source\PSoC6\pdl\drivers/peripheral/dma/cy_dma.h **** * \param descriptor
1279:Generated_Source\PSoC6\pdl\drivers/peripheral/dma/cy_dma.h **** * The descriptor structure instance declared by the user/component.
1280:Generated_Source\PSoC6\pdl\drivers/peripheral/dma/cy_dma.h **** *
1281:Generated_Source\PSoC6\pdl\drivers/peripheral/dma/cy_dma.h **** * \param dstXincrement
1282:Generated_Source\PSoC6\pdl\drivers/peripheral/dma/cy_dma.h **** * The value of the destination increment. The valid range is -2048 ... 2047.
1283:Generated_Source\PSoC6\pdl\drivers/peripheral/dma/cy_dma.h **** *
1284:Generated_Source\PSoC6\pdl\drivers/peripheral/dma/cy_dma.h **** * \funcusage 
1285:Generated_Source\PSoC6\pdl\drivers/peripheral/dma/cy_dma.h **** * \snippet dma\2.10\snippet\main.c snippet_Cy_DMA_Descriptor_SetterFunctions
1286:Generated_Source\PSoC6\pdl\drivers/peripheral/dma/cy_dma.h **** *  
1287:Generated_Source\PSoC6\pdl\drivers/peripheral/dma/cy_dma.h **** *******************************************************************************/
1288:Generated_Source\PSoC6\pdl\drivers/peripheral/dma/cy_dma.h **** __STATIC_INLINE void Cy_DMA_Descriptor_SetXloopDstIncrement(cy_stc_dma_descriptor_t * descriptor, i
1289:Generated_Source\PSoC6\pdl\drivers/peripheral/dma/cy_dma.h **** {
1290:Generated_Source\PSoC6\pdl\drivers/peripheral/dma/cy_dma.h ****     CY_ASSERT_L1(CY_DMA_SINGLE_TRANSFER != Cy_DMA_Descriptor_GetDescriptorType(descriptor));
1291:Generated_Source\PSoC6\pdl\drivers/peripheral/dma/cy_dma.h ****     CY_ASSERT_L2(CY_DMA_IS_LOOP_INCR_VALID(dstXincrement));
1292:Generated_Source\PSoC6\pdl\drivers/peripheral/dma/cy_dma.h ****     
1293:Generated_Source\PSoC6\pdl\drivers/peripheral/dma/cy_dma.h ****     CY_REG32_CLR_SET(descriptor->xCtl, CY_DMA_CTL_DST_INCR, dstXincrement);
1294:Generated_Source\PSoC6\pdl\drivers/peripheral/dma/cy_dma.h **** }
1295:Generated_Source\PSoC6\pdl\drivers/peripheral/dma/cy_dma.h **** 
1296:Generated_Source\PSoC6\pdl\drivers/peripheral/dma/cy_dma.h **** 
1297:Generated_Source\PSoC6\pdl\drivers/peripheral/dma/cy_dma.h **** /*******************************************************************************
ARM GAS  C:\Users\terre\AppData\Local\Temp\ccsuDe1N.s 			page 29


1298:Generated_Source\PSoC6\pdl\drivers/peripheral/dma/cy_dma.h **** * Function Name: Cy_DMA_Descriptor_GetXloopDstIncrement
1299:Generated_Source\PSoC6\pdl\drivers/peripheral/dma/cy_dma.h **** ****************************************************************************//**
1300:Generated_Source\PSoC6\pdl\drivers/peripheral/dma/cy_dma.h **** *
1301:Generated_Source\PSoC6\pdl\drivers/peripheral/dma/cy_dma.h **** * Returns the destination increment parameter for the X loop of the specified
1302:Generated_Source\PSoC6\pdl\drivers/peripheral/dma/cy_dma.h **** * descriptor (for 1D or 2D descriptors only).
1303:Generated_Source\PSoC6\pdl\drivers/peripheral/dma/cy_dma.h **** *
1304:Generated_Source\PSoC6\pdl\drivers/peripheral/dma/cy_dma.h **** * \param descriptor
1305:Generated_Source\PSoC6\pdl\drivers/peripheral/dma/cy_dma.h **** * The descriptor structure instance declared by the user/component.
1306:Generated_Source\PSoC6\pdl\drivers/peripheral/dma/cy_dma.h **** *
1307:Generated_Source\PSoC6\pdl\drivers/peripheral/dma/cy_dma.h **** * \return
1308:Generated_Source\PSoC6\pdl\drivers/peripheral/dma/cy_dma.h **** * The value of the destination increment. The range is -2048 ... 2047.
1309:Generated_Source\PSoC6\pdl\drivers/peripheral/dma/cy_dma.h **** *
1310:Generated_Source\PSoC6\pdl\drivers/peripheral/dma/cy_dma.h **** * \funcusage 
1311:Generated_Source\PSoC6\pdl\drivers/peripheral/dma/cy_dma.h **** * \snippet dma\2.10\snippet\main.c snippet_Cy_DMA_Descriptor_GetterFunctions
1312:Generated_Source\PSoC6\pdl\drivers/peripheral/dma/cy_dma.h **** *  
1313:Generated_Source\PSoC6\pdl\drivers/peripheral/dma/cy_dma.h **** *******************************************************************************/
1314:Generated_Source\PSoC6\pdl\drivers/peripheral/dma/cy_dma.h **** __STATIC_INLINE int32_t Cy_DMA_Descriptor_GetXloopDstIncrement(cy_stc_dma_descriptor_t const * desc
1315:Generated_Source\PSoC6\pdl\drivers/peripheral/dma/cy_dma.h **** {
1316:Generated_Source\PSoC6\pdl\drivers/peripheral/dma/cy_dma.h ****     CY_ASSERT_L1(CY_DMA_SINGLE_TRANSFER != Cy_DMA_Descriptor_GetDescriptorType(descriptor));
1317:Generated_Source\PSoC6\pdl\drivers/peripheral/dma/cy_dma.h ****     
1318:Generated_Source\PSoC6\pdl\drivers/peripheral/dma/cy_dma.h ****     return ((int32_t) _FLD2VAL(CY_DMA_CTL_DST_INCR, descriptor->xCtl));
1319:Generated_Source\PSoC6\pdl\drivers/peripheral/dma/cy_dma.h **** }
1320:Generated_Source\PSoC6\pdl\drivers/peripheral/dma/cy_dma.h **** 
1321:Generated_Source\PSoC6\pdl\drivers/peripheral/dma/cy_dma.h **** 
1322:Generated_Source\PSoC6\pdl\drivers/peripheral/dma/cy_dma.h **** /*******************************************************************************
1323:Generated_Source\PSoC6\pdl\drivers/peripheral/dma/cy_dma.h **** * Function Name: Cy_DMA_Descriptor_SetYloopDataCount
1324:Generated_Source\PSoC6\pdl\drivers/peripheral/dma/cy_dma.h **** ****************************************************************************//**
1325:Generated_Source\PSoC6\pdl\drivers/peripheral/dma/cy_dma.h **** *
1326:Generated_Source\PSoC6\pdl\drivers/peripheral/dma/cy_dma.h **** * Sets the number of data elements for the Y loop of the specified descriptor
1327:Generated_Source\PSoC6\pdl\drivers/peripheral/dma/cy_dma.h **** * (for 2D descriptors only).
1328:Generated_Source\PSoC6\pdl\drivers/peripheral/dma/cy_dma.h **** *
1329:Generated_Source\PSoC6\pdl\drivers/peripheral/dma/cy_dma.h **** * \param descriptor
1330:Generated_Source\PSoC6\pdl\drivers/peripheral/dma/cy_dma.h **** * The descriptor structure instance declared by the user/component.
1331:Generated_Source\PSoC6\pdl\drivers/peripheral/dma/cy_dma.h **** *
1332:Generated_Source\PSoC6\pdl\drivers/peripheral/dma/cy_dma.h **** * \param yCount
1333:Generated_Source\PSoC6\pdl\drivers/peripheral/dma/cy_dma.h **** * The number of X loops to execute in the Y loop. The valid range is 1 ... 256.
1334:Generated_Source\PSoC6\pdl\drivers/peripheral/dma/cy_dma.h **** *
1335:Generated_Source\PSoC6\pdl\drivers/peripheral/dma/cy_dma.h **** * \funcusage 
1336:Generated_Source\PSoC6\pdl\drivers/peripheral/dma/cy_dma.h **** * \snippet dma\2.10\snippet\main.c snippet_Cy_DMA_Descriptor_SetterFunctions
1337:Generated_Source\PSoC6\pdl\drivers/peripheral/dma/cy_dma.h **** *  
1338:Generated_Source\PSoC6\pdl\drivers/peripheral/dma/cy_dma.h **** *******************************************************************************/
1339:Generated_Source\PSoC6\pdl\drivers/peripheral/dma/cy_dma.h **** __STATIC_INLINE void Cy_DMA_Descriptor_SetYloopDataCount(cy_stc_dma_descriptor_t * descriptor, uint
1340:Generated_Source\PSoC6\pdl\drivers/peripheral/dma/cy_dma.h **** {
1341:Generated_Source\PSoC6\pdl\drivers/peripheral/dma/cy_dma.h ****     CY_ASSERT_L1(CY_DMA_2D_TRANSFER == Cy_DMA_Descriptor_GetDescriptorType(descriptor));
1342:Generated_Source\PSoC6\pdl\drivers/peripheral/dma/cy_dma.h ****     CY_ASSERT_L2(CY_DMA_IS_LOOP_COUNT_VALID(yCount));
1343:Generated_Source\PSoC6\pdl\drivers/peripheral/dma/cy_dma.h ****     /* Convert the data count from the user's range (1-256) into the machine range (0-255). */
1344:Generated_Source\PSoC6\pdl\drivers/peripheral/dma/cy_dma.h ****     CY_REG32_CLR_SET(descriptor->yCtl, CY_DMA_CTL_COUNT, yCount - 1UL);
1345:Generated_Source\PSoC6\pdl\drivers/peripheral/dma/cy_dma.h **** }
1346:Generated_Source\PSoC6\pdl\drivers/peripheral/dma/cy_dma.h **** 
1347:Generated_Source\PSoC6\pdl\drivers/peripheral/dma/cy_dma.h **** 
1348:Generated_Source\PSoC6\pdl\drivers/peripheral/dma/cy_dma.h **** /*******************************************************************************
1349:Generated_Source\PSoC6\pdl\drivers/peripheral/dma/cy_dma.h **** * Function Name: Cy_DMA_Descriptor_GetYloopDataCount
1350:Generated_Source\PSoC6\pdl\drivers/peripheral/dma/cy_dma.h **** ****************************************************************************//**
1351:Generated_Source\PSoC6\pdl\drivers/peripheral/dma/cy_dma.h **** *
1352:Generated_Source\PSoC6\pdl\drivers/peripheral/dma/cy_dma.h **** * Returns the number of X loops to execute in the Y loop of the specified
1353:Generated_Source\PSoC6\pdl\drivers/peripheral/dma/cy_dma.h **** * descriptor (for 2D descriptors only).
1354:Generated_Source\PSoC6\pdl\drivers/peripheral/dma/cy_dma.h **** *
ARM GAS  C:\Users\terre\AppData\Local\Temp\ccsuDe1N.s 			page 30


1355:Generated_Source\PSoC6\pdl\drivers/peripheral/dma/cy_dma.h **** * \param descriptor
1356:Generated_Source\PSoC6\pdl\drivers/peripheral/dma/cy_dma.h **** * The descriptor structure instance declared by the user/component.
1357:Generated_Source\PSoC6\pdl\drivers/peripheral/dma/cy_dma.h **** *
1358:Generated_Source\PSoC6\pdl\drivers/peripheral/dma/cy_dma.h **** * \return
1359:Generated_Source\PSoC6\pdl\drivers/peripheral/dma/cy_dma.h **** * The number of X loops to execute in the Y loop. The range is 1 ... 256.
1360:Generated_Source\PSoC6\pdl\drivers/peripheral/dma/cy_dma.h **** *
1361:Generated_Source\PSoC6\pdl\drivers/peripheral/dma/cy_dma.h **** * \funcusage 
1362:Generated_Source\PSoC6\pdl\drivers/peripheral/dma/cy_dma.h **** * \snippet dma\2.10\snippet\main.c snippet_Cy_DMA_Descriptor_GetterFunctions
1363:Generated_Source\PSoC6\pdl\drivers/peripheral/dma/cy_dma.h **** *  
1364:Generated_Source\PSoC6\pdl\drivers/peripheral/dma/cy_dma.h **** *******************************************************************************/
1365:Generated_Source\PSoC6\pdl\drivers/peripheral/dma/cy_dma.h **** __STATIC_INLINE uint32_t Cy_DMA_Descriptor_GetYloopDataCount(cy_stc_dma_descriptor_t const * descri
1366:Generated_Source\PSoC6\pdl\drivers/peripheral/dma/cy_dma.h **** {
1367:Generated_Source\PSoC6\pdl\drivers/peripheral/dma/cy_dma.h ****     CY_ASSERT_L1(CY_DMA_2D_TRANSFER == Cy_DMA_Descriptor_GetDescriptorType(descriptor));
1368:Generated_Source\PSoC6\pdl\drivers/peripheral/dma/cy_dma.h ****     /* Convert the data count from the machine range (0-255) into the user's range (1-256). */
1369:Generated_Source\PSoC6\pdl\drivers/peripheral/dma/cy_dma.h ****     return (_FLD2VAL(CY_DMA_CTL_COUNT, descriptor->yCtl) + 1UL);
1370:Generated_Source\PSoC6\pdl\drivers/peripheral/dma/cy_dma.h **** }
1371:Generated_Source\PSoC6\pdl\drivers/peripheral/dma/cy_dma.h **** 
1372:Generated_Source\PSoC6\pdl\drivers/peripheral/dma/cy_dma.h **** 
1373:Generated_Source\PSoC6\pdl\drivers/peripheral/dma/cy_dma.h **** /*******************************************************************************
1374:Generated_Source\PSoC6\pdl\drivers/peripheral/dma/cy_dma.h **** * Function Name: Cy_DMA_Descriptor_SetYloopSrcIncrement
1375:Generated_Source\PSoC6\pdl\drivers/peripheral/dma/cy_dma.h **** ****************************************************************************//**
1376:Generated_Source\PSoC6\pdl\drivers/peripheral/dma/cy_dma.h **** *
1377:Generated_Source\PSoC6\pdl\drivers/peripheral/dma/cy_dma.h **** * Sets the source increment parameter for the Y loop for the specified
1378:Generated_Source\PSoC6\pdl\drivers/peripheral/dma/cy_dma.h **** * descriptor (for 2D descriptors only).
1379:Generated_Source\PSoC6\pdl\drivers/peripheral/dma/cy_dma.h **** *
1380:Generated_Source\PSoC6\pdl\drivers/peripheral/dma/cy_dma.h **** * \param descriptor
1381:Generated_Source\PSoC6\pdl\drivers/peripheral/dma/cy_dma.h **** * The descriptor structure instance declared by the user/component.
1382:Generated_Source\PSoC6\pdl\drivers/peripheral/dma/cy_dma.h **** *
1383:Generated_Source\PSoC6\pdl\drivers/peripheral/dma/cy_dma.h **** * \param srcYincrement
1384:Generated_Source\PSoC6\pdl\drivers/peripheral/dma/cy_dma.h **** * The value of the source increment. The valid range is -2048 ... 2047.
1385:Generated_Source\PSoC6\pdl\drivers/peripheral/dma/cy_dma.h **** *
1386:Generated_Source\PSoC6\pdl\drivers/peripheral/dma/cy_dma.h **** * \funcusage 
1387:Generated_Source\PSoC6\pdl\drivers/peripheral/dma/cy_dma.h **** * \snippet dma\2.10\snippet\main.c snippet_Cy_DMA_Descriptor_SetterFunctions
1388:Generated_Source\PSoC6\pdl\drivers/peripheral/dma/cy_dma.h **** *  
1389:Generated_Source\PSoC6\pdl\drivers/peripheral/dma/cy_dma.h **** *******************************************************************************/
1390:Generated_Source\PSoC6\pdl\drivers/peripheral/dma/cy_dma.h **** __STATIC_INLINE void Cy_DMA_Descriptor_SetYloopSrcIncrement(cy_stc_dma_descriptor_t * descriptor, i
1391:Generated_Source\PSoC6\pdl\drivers/peripheral/dma/cy_dma.h **** {
1392:Generated_Source\PSoC6\pdl\drivers/peripheral/dma/cy_dma.h ****     CY_ASSERT_L1(CY_DMA_2D_TRANSFER == Cy_DMA_Descriptor_GetDescriptorType(descriptor));
1393:Generated_Source\PSoC6\pdl\drivers/peripheral/dma/cy_dma.h ****     CY_ASSERT_L2(CY_DMA_IS_LOOP_INCR_VALID(srcYincrement));
1394:Generated_Source\PSoC6\pdl\drivers/peripheral/dma/cy_dma.h ****     
1395:Generated_Source\PSoC6\pdl\drivers/peripheral/dma/cy_dma.h ****     CY_REG32_CLR_SET(descriptor->yCtl, CY_DMA_CTL_SRC_INCR, srcYincrement);
1396:Generated_Source\PSoC6\pdl\drivers/peripheral/dma/cy_dma.h **** }
1397:Generated_Source\PSoC6\pdl\drivers/peripheral/dma/cy_dma.h **** 
1398:Generated_Source\PSoC6\pdl\drivers/peripheral/dma/cy_dma.h **** 
1399:Generated_Source\PSoC6\pdl\drivers/peripheral/dma/cy_dma.h **** /*******************************************************************************
1400:Generated_Source\PSoC6\pdl\drivers/peripheral/dma/cy_dma.h **** * Function Name: Cy_DMA_Descriptor_GetYloopSrcIncrement
1401:Generated_Source\PSoC6\pdl\drivers/peripheral/dma/cy_dma.h **** ****************************************************************************//**
1402:Generated_Source\PSoC6\pdl\drivers/peripheral/dma/cy_dma.h **** *
1403:Generated_Source\PSoC6\pdl\drivers/peripheral/dma/cy_dma.h **** * Returns the source increment parameter for the outer Y of the specified
1404:Generated_Source\PSoC6\pdl\drivers/peripheral/dma/cy_dma.h **** * descriptor (for 2D descriptors only).
1405:Generated_Source\PSoC6\pdl\drivers/peripheral/dma/cy_dma.h **** *
1406:Generated_Source\PSoC6\pdl\drivers/peripheral/dma/cy_dma.h **** * \param descriptor
1407:Generated_Source\PSoC6\pdl\drivers/peripheral/dma/cy_dma.h **** * The descriptor structure instance declared by the user/component.
1408:Generated_Source\PSoC6\pdl\drivers/peripheral/dma/cy_dma.h **** *
1409:Generated_Source\PSoC6\pdl\drivers/peripheral/dma/cy_dma.h **** * \return
1410:Generated_Source\PSoC6\pdl\drivers/peripheral/dma/cy_dma.h **** * The value of the source increment. The range is -2048 ... 2047.
1411:Generated_Source\PSoC6\pdl\drivers/peripheral/dma/cy_dma.h **** *
ARM GAS  C:\Users\terre\AppData\Local\Temp\ccsuDe1N.s 			page 31


1412:Generated_Source\PSoC6\pdl\drivers/peripheral/dma/cy_dma.h **** * \funcusage 
1413:Generated_Source\PSoC6\pdl\drivers/peripheral/dma/cy_dma.h **** * \snippet dma\2.10\snippet\main.c snippet_Cy_DMA_Descriptor_GetterFunctions
1414:Generated_Source\PSoC6\pdl\drivers/peripheral/dma/cy_dma.h **** *  
1415:Generated_Source\PSoC6\pdl\drivers/peripheral/dma/cy_dma.h **** *******************************************************************************/
1416:Generated_Source\PSoC6\pdl\drivers/peripheral/dma/cy_dma.h **** __STATIC_INLINE int32_t Cy_DMA_Descriptor_GetYloopSrcIncrement(cy_stc_dma_descriptor_t const * desc
1417:Generated_Source\PSoC6\pdl\drivers/peripheral/dma/cy_dma.h **** {
1418:Generated_Source\PSoC6\pdl\drivers/peripheral/dma/cy_dma.h ****     CY_ASSERT_L1(CY_DMA_2D_TRANSFER == Cy_DMA_Descriptor_GetDescriptorType(descriptor));
1419:Generated_Source\PSoC6\pdl\drivers/peripheral/dma/cy_dma.h ****     
1420:Generated_Source\PSoC6\pdl\drivers/peripheral/dma/cy_dma.h ****     return ((int32_t) _FLD2VAL(CY_DMA_CTL_SRC_INCR, descriptor->yCtl));
1421:Generated_Source\PSoC6\pdl\drivers/peripheral/dma/cy_dma.h **** }
1422:Generated_Source\PSoC6\pdl\drivers/peripheral/dma/cy_dma.h **** 
1423:Generated_Source\PSoC6\pdl\drivers/peripheral/dma/cy_dma.h **** 
1424:Generated_Source\PSoC6\pdl\drivers/peripheral/dma/cy_dma.h **** /*******************************************************************************
1425:Generated_Source\PSoC6\pdl\drivers/peripheral/dma/cy_dma.h **** * Function Name: Cy_DMA_Descriptor_SetYloopDstIncrement
1426:Generated_Source\PSoC6\pdl\drivers/peripheral/dma/cy_dma.h **** ****************************************************************************//**
1427:Generated_Source\PSoC6\pdl\drivers/peripheral/dma/cy_dma.h **** *
1428:Generated_Source\PSoC6\pdl\drivers/peripheral/dma/cy_dma.h **** * Sets the destination increment parameter for the Y loop of the specified
1429:Generated_Source\PSoC6\pdl\drivers/peripheral/dma/cy_dma.h **** * descriptor (for 2D descriptors only).
1430:Generated_Source\PSoC6\pdl\drivers/peripheral/dma/cy_dma.h **** *
1431:Generated_Source\PSoC6\pdl\drivers/peripheral/dma/cy_dma.h **** * \param descriptor
1432:Generated_Source\PSoC6\pdl\drivers/peripheral/dma/cy_dma.h **** * The descriptor structure instance declared by the user/component.
1433:Generated_Source\PSoC6\pdl\drivers/peripheral/dma/cy_dma.h **** *
1434:Generated_Source\PSoC6\pdl\drivers/peripheral/dma/cy_dma.h **** * \param dstYincrement
1435:Generated_Source\PSoC6\pdl\drivers/peripheral/dma/cy_dma.h **** * The value of the destination increment. The valid range is -2048 ... 2047.
1436:Generated_Source\PSoC6\pdl\drivers/peripheral/dma/cy_dma.h **** *
1437:Generated_Source\PSoC6\pdl\drivers/peripheral/dma/cy_dma.h **** * \funcusage 
1438:Generated_Source\PSoC6\pdl\drivers/peripheral/dma/cy_dma.h **** * \snippet dma\2.10\snippet\main.c snippet_Cy_DMA_Descriptor_SetterFunctions
1439:Generated_Source\PSoC6\pdl\drivers/peripheral/dma/cy_dma.h **** *
1440:Generated_Source\PSoC6\pdl\drivers/peripheral/dma/cy_dma.h **** *******************************************************************************/
1441:Generated_Source\PSoC6\pdl\drivers/peripheral/dma/cy_dma.h **** __STATIC_INLINE void Cy_DMA_Descriptor_SetYloopDstIncrement(cy_stc_dma_descriptor_t * descriptor, i
1442:Generated_Source\PSoC6\pdl\drivers/peripheral/dma/cy_dma.h **** {
1443:Generated_Source\PSoC6\pdl\drivers/peripheral/dma/cy_dma.h ****     CY_ASSERT_L1(CY_DMA_2D_TRANSFER == Cy_DMA_Descriptor_GetDescriptorType(descriptor));
1444:Generated_Source\PSoC6\pdl\drivers/peripheral/dma/cy_dma.h ****     CY_ASSERT_L2(CY_DMA_IS_LOOP_INCR_VALID(dstYincrement));
1445:Generated_Source\PSoC6\pdl\drivers/peripheral/dma/cy_dma.h ****     
1446:Generated_Source\PSoC6\pdl\drivers/peripheral/dma/cy_dma.h ****     CY_REG32_CLR_SET(descriptor->yCtl, CY_DMA_CTL_DST_INCR, dstYincrement);
1447:Generated_Source\PSoC6\pdl\drivers/peripheral/dma/cy_dma.h **** }
1448:Generated_Source\PSoC6\pdl\drivers/peripheral/dma/cy_dma.h **** 
1449:Generated_Source\PSoC6\pdl\drivers/peripheral/dma/cy_dma.h **** 
1450:Generated_Source\PSoC6\pdl\drivers/peripheral/dma/cy_dma.h **** /*******************************************************************************
1451:Generated_Source\PSoC6\pdl\drivers/peripheral/dma/cy_dma.h **** * Function Name: Cy_DMA_Descriptor_GetYloopDstIncrement
1452:Generated_Source\PSoC6\pdl\drivers/peripheral/dma/cy_dma.h **** ****************************************************************************//**
1453:Generated_Source\PSoC6\pdl\drivers/peripheral/dma/cy_dma.h **** *
1454:Generated_Source\PSoC6\pdl\drivers/peripheral/dma/cy_dma.h **** * Returns the destination increment parameter for the Y loop of the specified
1455:Generated_Source\PSoC6\pdl\drivers/peripheral/dma/cy_dma.h **** * descriptor (for 2D descriptors only). 
1456:Generated_Source\PSoC6\pdl\drivers/peripheral/dma/cy_dma.h **** *
1457:Generated_Source\PSoC6\pdl\drivers/peripheral/dma/cy_dma.h **** * \param descriptor
1458:Generated_Source\PSoC6\pdl\drivers/peripheral/dma/cy_dma.h **** * The descriptor structure instance declared by the user/component.
1459:Generated_Source\PSoC6\pdl\drivers/peripheral/dma/cy_dma.h **** *
1460:Generated_Source\PSoC6\pdl\drivers/peripheral/dma/cy_dma.h **** * \return
1461:Generated_Source\PSoC6\pdl\drivers/peripheral/dma/cy_dma.h **** * The value of the destination increment. The range is -2048 ... 2047.
1462:Generated_Source\PSoC6\pdl\drivers/peripheral/dma/cy_dma.h **** *
1463:Generated_Source\PSoC6\pdl\drivers/peripheral/dma/cy_dma.h **** * \funcusage 
1464:Generated_Source\PSoC6\pdl\drivers/peripheral/dma/cy_dma.h **** * \snippet dma\2.10\snippet\main.c snippet_Cy_DMA_Descriptor_GetterFunctions
1465:Generated_Source\PSoC6\pdl\drivers/peripheral/dma/cy_dma.h **** *  
1466:Generated_Source\PSoC6\pdl\drivers/peripheral/dma/cy_dma.h **** *******************************************************************************/
1467:Generated_Source\PSoC6\pdl\drivers/peripheral/dma/cy_dma.h **** __STATIC_INLINE int32_t Cy_DMA_Descriptor_GetYloopDstIncrement(cy_stc_dma_descriptor_t const * desc
1468:Generated_Source\PSoC6\pdl\drivers/peripheral/dma/cy_dma.h **** {
ARM GAS  C:\Users\terre\AppData\Local\Temp\ccsuDe1N.s 			page 32


1469:Generated_Source\PSoC6\pdl\drivers/peripheral/dma/cy_dma.h ****     CY_ASSERT_L1(CY_DMA_2D_TRANSFER == Cy_DMA_Descriptor_GetDescriptorType(descriptor));
1470:Generated_Source\PSoC6\pdl\drivers/peripheral/dma/cy_dma.h ****     
1471:Generated_Source\PSoC6\pdl\drivers/peripheral/dma/cy_dma.h ****     return ((int32_t) _FLD2VAL(CY_DMA_CTL_DST_INCR, descriptor->yCtl));
1472:Generated_Source\PSoC6\pdl\drivers/peripheral/dma/cy_dma.h **** }
1473:Generated_Source\PSoC6\pdl\drivers/peripheral/dma/cy_dma.h **** 
1474:Generated_Source\PSoC6\pdl\drivers/peripheral/dma/cy_dma.h **** 
1475:Generated_Source\PSoC6\pdl\drivers/peripheral/dma/cy_dma.h **** /** \} group_dma_descriptor_functions */
1476:Generated_Source\PSoC6\pdl\drivers/peripheral/dma/cy_dma.h **** 
1477:Generated_Source\PSoC6\pdl\drivers/peripheral/dma/cy_dma.h **** 
1478:Generated_Source\PSoC6\pdl\drivers/peripheral/dma/cy_dma.h **** /**
1479:Generated_Source\PSoC6\pdl\drivers/peripheral/dma/cy_dma.h **** * \addtogroup group_dma_channel_functions
1480:Generated_Source\PSoC6\pdl\drivers/peripheral/dma/cy_dma.h **** * \{
1481:Generated_Source\PSoC6\pdl\drivers/peripheral/dma/cy_dma.h **** */
1482:Generated_Source\PSoC6\pdl\drivers/peripheral/dma/cy_dma.h **** 
1483:Generated_Source\PSoC6\pdl\drivers/peripheral/dma/cy_dma.h **** 
1484:Generated_Source\PSoC6\pdl\drivers/peripheral/dma/cy_dma.h **** /*******************************************************************************
1485:Generated_Source\PSoC6\pdl\drivers/peripheral/dma/cy_dma.h **** * Function Name: Cy_DMA_Channel_SetDescriptor
1486:Generated_Source\PSoC6\pdl\drivers/peripheral/dma/cy_dma.h **** ****************************************************************************//**
1487:Generated_Source\PSoC6\pdl\drivers/peripheral/dma/cy_dma.h **** *
1488:Generated_Source\PSoC6\pdl\drivers/peripheral/dma/cy_dma.h **** * Sets a descriptor as current for the specified DMA channel.
1489:Generated_Source\PSoC6\pdl\drivers/peripheral/dma/cy_dma.h **** *
1490:Generated_Source\PSoC6\pdl\drivers/peripheral/dma/cy_dma.h **** * \param base
1491:Generated_Source\PSoC6\pdl\drivers/peripheral/dma/cy_dma.h **** * The pointer to the hardware DMA block.
1492:Generated_Source\PSoC6\pdl\drivers/peripheral/dma/cy_dma.h **** *
1493:Generated_Source\PSoC6\pdl\drivers/peripheral/dma/cy_dma.h **** * \param channel
1494:Generated_Source\PSoC6\pdl\drivers/peripheral/dma/cy_dma.h **** * The channel number.
1495:Generated_Source\PSoC6\pdl\drivers/peripheral/dma/cy_dma.h **** *
1496:Generated_Source\PSoC6\pdl\drivers/peripheral/dma/cy_dma.h **** * \param descriptor
1497:Generated_Source\PSoC6\pdl\drivers/peripheral/dma/cy_dma.h **** * This is the descriptor to be associated with the channel.
1498:Generated_Source\PSoC6\pdl\drivers/peripheral/dma/cy_dma.h **** *
1499:Generated_Source\PSoC6\pdl\drivers/peripheral/dma/cy_dma.h **** * \funcusage 
1500:Generated_Source\PSoC6\pdl\drivers/peripheral/dma/cy_dma.h **** * \snippet dma\2.10\snippet\main.c snippet_Cy_DMA_Enable
1501:Generated_Source\PSoC6\pdl\drivers/peripheral/dma/cy_dma.h **** *
1502:Generated_Source\PSoC6\pdl\drivers/peripheral/dma/cy_dma.h **** *******************************************************************************/
1503:Generated_Source\PSoC6\pdl\drivers/peripheral/dma/cy_dma.h **** __STATIC_INLINE void Cy_DMA_Channel_SetDescriptor(DW_Type * base, uint32_t channel, cy_stc_dma_desc
1504:Generated_Source\PSoC6\pdl\drivers/peripheral/dma/cy_dma.h **** {
1505:Generated_Source\PSoC6\pdl\drivers/peripheral/dma/cy_dma.h ****     CY_ASSERT_L1(CY_DMA_IS_CH_NR_VALID(channel));
1506:Generated_Source\PSoC6\pdl\drivers/peripheral/dma/cy_dma.h ****     
1507:Generated_Source\PSoC6\pdl\drivers/peripheral/dma/cy_dma.h ****     DW_CH_CURR_PTR(base, channel) = (uint32_t)descriptor;
1508:Generated_Source\PSoC6\pdl\drivers/peripheral/dma/cy_dma.h ****     DW_CH_IDX(base, channel) &= (uint32_t) ~(DW_CH_STRUCT_CH_IDX_X_IDX_Msk | DW_CH_STRUCT_CH_IDX_Y_
1509:Generated_Source\PSoC6\pdl\drivers/peripheral/dma/cy_dma.h **** }
1510:Generated_Source\PSoC6\pdl\drivers/peripheral/dma/cy_dma.h **** 
1511:Generated_Source\PSoC6\pdl\drivers/peripheral/dma/cy_dma.h **** 
1512:Generated_Source\PSoC6\pdl\drivers/peripheral/dma/cy_dma.h **** /*******************************************************************************
1513:Generated_Source\PSoC6\pdl\drivers/peripheral/dma/cy_dma.h **** * Function Name: Cy_DMA_Channel_Enable
1514:Generated_Source\PSoC6\pdl\drivers/peripheral/dma/cy_dma.h **** ****************************************************************************//**
1515:Generated_Source\PSoC6\pdl\drivers/peripheral/dma/cy_dma.h **** *
1516:Generated_Source\PSoC6\pdl\drivers/peripheral/dma/cy_dma.h **** * The function is used to enable a DMA channel.
1517:Generated_Source\PSoC6\pdl\drivers/peripheral/dma/cy_dma.h **** *
1518:Generated_Source\PSoC6\pdl\drivers/peripheral/dma/cy_dma.h **** * \param base
1519:Generated_Source\PSoC6\pdl\drivers/peripheral/dma/cy_dma.h **** * The pointer to the hardware DMA block.
1520:Generated_Source\PSoC6\pdl\drivers/peripheral/dma/cy_dma.h **** *
1521:Generated_Source\PSoC6\pdl\drivers/peripheral/dma/cy_dma.h **** * \param channel
1522:Generated_Source\PSoC6\pdl\drivers/peripheral/dma/cy_dma.h **** * The  channel number.
1523:Generated_Source\PSoC6\pdl\drivers/peripheral/dma/cy_dma.h **** *
1524:Generated_Source\PSoC6\pdl\drivers/peripheral/dma/cy_dma.h **** * \funcusage 
1525:Generated_Source\PSoC6\pdl\drivers/peripheral/dma/cy_dma.h **** * \snippet dma\2.10\snippet\main.c snippet_Cy_DMA_Enable
ARM GAS  C:\Users\terre\AppData\Local\Temp\ccsuDe1N.s 			page 33


1526:Generated_Source\PSoC6\pdl\drivers/peripheral/dma/cy_dma.h **** *
1527:Generated_Source\PSoC6\pdl\drivers/peripheral/dma/cy_dma.h **** *******************************************************************************/
1528:Generated_Source\PSoC6\pdl\drivers/peripheral/dma/cy_dma.h **** __STATIC_INLINE void Cy_DMA_Channel_Enable(DW_Type * base, uint32_t channel)
1529:Generated_Source\PSoC6\pdl\drivers/peripheral/dma/cy_dma.h **** {
1530:Generated_Source\PSoC6\pdl\drivers/peripheral/dma/cy_dma.h ****     CY_ASSERT_L1(CY_DMA_IS_CH_NR_VALID(channel));
 145              		.loc 2 1530 0
 146 0020 0C4B     		ldr	r3, .L9+4
 147 0022 1B68     		ldr	r3, [r3]
 148 0024 93F83330 		ldrb	r3, [r3, #51]	@ zero_extendqisi2
 149 0028 23B9     		cbnz	r3, .L7
 150 002a 40F2FA51 		movw	r1, #1530
 151 002e 0A48     		ldr	r0, .L9+8
 152 0030 FFF7FEFF 		bl	Cy_SysLib_AssertFailed
 153              	.LVL9:
 154              	.L7:
1531:Generated_Source\PSoC6\pdl\drivers/peripheral/dma/cy_dma.h ****     
1532:Generated_Source\PSoC6\pdl\drivers/peripheral/dma/cy_dma.h ****     DW_CH_CTL(base, channel) |= DW_CH_STRUCT_CH_CTL_ENABLED_Msk;
 155              		.loc 2 1532 0
 156 0034 074B     		ldr	r3, .L9+4
 157 0036 1B68     		ldr	r3, [r3]
 158 0038 B3F85A30 		ldrh	r3, [r3, #90]
 159 003c 03F18043 		add	r3, r3, #1073741824
 160 0040 03F52013 		add	r3, r3, #2621440
 161 0044 1A68     		ldr	r2, [r3]
 162 0046 42F00042 		orr	r2, r2, #-2147483648
 163 004a 1A60     		str	r2, [r3]
 164              	.LVL10:
 165 004c 38BD     		pop	{r3, r4, r5, pc}
 166              	.LVL11:
 167              	.L10:
 168 004e 00BF     		.align	2
 169              	.L9:
 170 0050 00000000 		.word	.LANCHOR1
 171 0054 00000000 		.word	cy_device
 172 0058 00000000 		.word	.LC0
 173              	.LBE21:
 174              	.LBE20:
 175              		.cfi_endproc
 176              	.LFE234:
 177              		.size	DMA_2_Start, .-DMA_2_Start
 178              		.global	DMA_2_initVar
 179              		.global	DMA_2_Descriptor_2
 180              		.global	DMA_2_Descriptor_2_config
 181              		.global	DMA_2_Descriptor_1
 182              		.global	DMA_2_Descriptor_1_config
 183              		.section	.rodata
 184              		.align	2
 185              		.set	.LANCHOR0,. + 0
 186              		.type	DMA_2_Descriptor_1_config, %object
 187              		.size	DMA_2_Descriptor_1_config, 48
 188              	DMA_2_Descriptor_1_config:
 189 0000 00       		.byte	0
 190 0001 02       		.byte	2
 191 0002 00       		.byte	0
 192 0003 00       		.byte	0
 193 0004 00       		.byte	0
 194 0005 01       		.byte	1
ARM GAS  C:\Users\terre\AppData\Local\Temp\ccsuDe1N.s 			page 34


 195 0006 01       		.byte	1
 196 0007 00       		.byte	0
 197 0008 02       		.byte	2
 198 0009 000000   		.space	3
 199 000c 00000000 		.word	0
 200 0010 00000000 		.word	0
 201 0014 00000000 		.word	0
 202 0018 01000000 		.word	1
 203 001c 00010000 		.word	256
 204 0020 00000000 		.word	0
 205 0024 00010000 		.word	256
 206 0028 02000000 		.word	2
 207 002c 00000000 		.word	DMA_2_Descriptor_2
 208              		.type	DMA_2_Descriptor_2_config, %object
 209              		.size	DMA_2_Descriptor_2_config, 48
 210              	DMA_2_Descriptor_2_config:
 211 0030 00       		.byte	0
 212 0031 02       		.byte	2
 213 0032 00       		.byte	0
 214 0033 00       		.byte	0
 215 0034 00       		.byte	0
 216 0035 01       		.byte	1
 217 0036 01       		.byte	1
 218 0037 00       		.byte	0
 219 0038 02       		.byte	2
 220 0039 000000   		.space	3
 221 003c 00000000 		.word	0
 222 0040 00000000 		.word	0
 223 0044 00000000 		.word	0
 224 0048 01000000 		.word	1
 225 004c 00010000 		.word	256
 226 0050 00000000 		.word	0
 227 0054 00010000 		.word	256
 228 0058 02000000 		.word	2
 229 005c 00000000 		.word	DMA_2_Descriptor_1
 230              		.section	.rodata.str1.4,"aMS",%progbits,1
 231              		.align	2
 232              	.LC0:
 233 0000 47656E65 		.ascii	"Generated_Source\\PSoC6\\pdl\\drivers/peripheral/dm"
 233      72617465 
 233      645F536F 
 233      75726365 
 233      5C50536F 
 234 0030 612F6379 		.ascii	"a/cy_dma.h\000"
 234      5F646D61 
 234      2E6800
 235              		.bss
 236              		.align	2
 237              		.set	.LANCHOR1,. + 0
 238              		.type	DMA_2_Descriptor_1, %object
 239              		.size	DMA_2_Descriptor_1, 24
 240              	DMA_2_Descriptor_1:
 241 0000 00000000 		.space	24
 241      00000000 
 241      00000000 
 241      00000000 
 241      00000000 
ARM GAS  C:\Users\terre\AppData\Local\Temp\ccsuDe1N.s 			page 35


 242              		.type	DMA_2_Descriptor_2, %object
 243              		.size	DMA_2_Descriptor_2, 24
 244              	DMA_2_Descriptor_2:
 245 0018 00000000 		.space	24
 245      00000000 
 245      00000000 
 245      00000000 
 245      00000000 
 246              		.type	DMA_2_initVar, %object
 247              		.size	DMA_2_initVar, 1
 248              	DMA_2_initVar:
 249 0030 00       		.space	1
 250              		.text
 251              	.Letext0:
 252              		.file 3 "c:\\program files (x86)\\cypress\\psoc creator\\4.4\\psoc creator\\import\\gnu\\arm\\5.4.
 253              		.file 4 "c:\\program files (x86)\\cypress\\psoc creator\\4.4\\psoc creator\\import\\gnu\\arm\\5.4.
 254              		.file 5 "Generated_Source\\PSoC6\\pdl\\devices/psoc6/include/ip/cyip_dw.h"
 255              		.file 6 "Generated_Source\\PSoC6\\pdl\\devices/psoc6/include/psoc6_01_config.h"
 256              		.file 7 "Generated_Source\\PSoC6\\pdl\\devices/psoc6/include/ip/cyip_dw_v2.h"
 257              		.file 8 "Generated_Source\\PSoC6\\pdl\\drivers/peripheral/device/cy_device.h"
 258              		.file 9 "Generated_Source\\PSoC6\\pdl\\drivers/peripheral/syslib/cy_syslib.h"
 259              		.file 10 "Generated_Source\\PSoC6\\pdl\\cmsis/include/core_cm4.h"