ARM GAS  C:\Users\terre\AppData\Local\Temp\ccV4vh18.s 			page 1


   1              		.syntax unified
   2              		.cpu cortex-m4
   3              		.eabi_attribute 27, 1
   4              		.fpu fpv4-sp-d16
   5              		.eabi_attribute 20, 1
   6              		.eabi_attribute 21, 1
   7              		.eabi_attribute 23, 3
   8              		.eabi_attribute 24, 1
   9              		.eabi_attribute 25, 1
  10              		.eabi_attribute 26, 1
  11              		.eabi_attribute 30, 1
  12              		.eabi_attribute 34, 1
  13              		.eabi_attribute 18, 4
  14              		.thumb
  15              		.syntax unified
  16              		.file	"waves.c"
  17              		.text
  18              	.Ltext0:
  19              		.cfi_sections	.debug_frame
  20              		.section	.text.Y_scaling,"ax",%progbits
  21              		.align	2
  22              		.global	Y_scaling
  23              		.thumb
  24              		.thumb_func
  25              		.type	Y_scaling, %function
  26              	Y_scaling:
  27              	.LFB763:
  28              		.file 1 "waves.c"
   1:waves.c       **** /* ========================================
   2:waves.c       **** Terrence Ng
   3:waves.c       **** CSE 121/L
   4:waves.c       **** Section: B
   5:waves.c       **** 
   6:waves.c       **** Notes: Contains functins for dealing with waves
   7:waves.c       **** 
   8:waves.c       **** Lab Project
   9:waves.c       ****  * ========================================
  10:waves.c       **** */
  11:waves.c       **** 
  12:waves.c       **** 
  13:waves.c       **** #include "project.h"
  14:waves.c       **** #include "stdlib.h"
  15:waves.c       **** #include "stdio.h"
  16:waves.c       **** #include "math.h"
  17:waves.c       **** #include "waves.h"
  18:waves.c       **** #include "TinyScope.h"
  19:waves.c       **** #include "GUI.h"
  20:waves.c       **** 
  21:waves.c       **** 
  22:waves.c       **** /*******************************************************************************
  23:waves.c       **** Perform Y scaling and fill Y scaled buffer
  24:waves.c       **** unscaled = unscaled buffer
  25:waves.c       **** scaled = scaled buffer
  26:waves.c       **** Sy = y scaling
  27:waves.c       **** *******************************************************************************/
  28:waves.c       **** 
  29:waves.c       **** void Y_scaling(uint16_t unscaled[], uint16_t scaled[], int Sy) //Y has 8 divisions
ARM GAS  C:\Users\terre\AppData\Local\Temp\ccV4vh18.s 			page 2


  30:waves.c       **** {
  29              		.loc 1 30 0
  30              		.cfi_startproc
  31              		@ args = 0, pretend = 0, frame = 0
  32              		@ frame_needed = 0, uses_anonymous_args = 0
  33              		@ link register save eliminated.
  34              	.LVL0:
  35 0000 30B4     		push	{r4, r5}
  36              		.cfi_def_cfa_offset 8
  37              		.cfi_offset 4, -8
  38              		.cfi_offset 5, -4
  39              	.LVL1:
  40              	.LBB2:
  31:waves.c       ****     for(int i = 0; i < 512; i++) {
  41              		.loc 1 31 0
  42 0002 0024     		movs	r4, #0
  43 0004 0AE0     		b	.L2
  44              	.LVL2:
  45              	.L3:
  46              	.LBB3:
  32:waves.c       ****         int Y = unscaled[i]; //ADC Result
  47              		.loc 1 32 0 discriminator 3
  48 0006 30F81450 		ldrh	r5, [r0, r4, lsl #1]
  49              	.LVL3:
  33:waves.c       ****         scaled[i] =  (30 * 3300 * Y) / (2048 * Sy) ; //Scaled Y = [(240/8) / (Sy)] * 3300 * (ADC_Re
  50              		.loc 1 33 0 discriminator 3
  51 000a 074B     		ldr	r3, .L5
  52 000c 03FB05F3 		mul	r3, r3, r5
  53 0010 D502     		lsls	r5, r2, #11
  54              	.LVL4:
  55 0012 93FBF5F3 		sdiv	r3, r3, r5
  56 0016 21F81430 		strh	r3, [r1, r4, lsl #1]	@ movhi
  57              	.LVL5:
  58              	.LBE3:
  31:waves.c       ****     for(int i = 0; i < 512; i++) {
  59              		.loc 1 31 0 discriminator 3
  60 001a 0134     		adds	r4, r4, #1
  61              	.LVL6:
  62              	.L2:
  31:waves.c       ****     for(int i = 0; i < 512; i++) {
  63              		.loc 1 31 0 is_stmt 0 discriminator 1
  64 001c B4F5007F 		cmp	r4, #512
  65 0020 F1DB     		blt	.L3
  66              	.LBE2:
  34:waves.c       ****     }
  35:waves.c       **** }
  67              		.loc 1 35 0 is_stmt 1
  68 0022 30BC     		pop	{r4, r5}
  69              		.cfi_restore 5
  70              		.cfi_restore 4
  71              		.cfi_def_cfa_offset 0
  72              	.LVL7:
  73 0024 7047     		bx	lr
  74              	.L6:
  75 0026 00BF     		.align	2
  76              	.L5:
  77 0028 B8820100 		.word	99000
ARM GAS  C:\Users\terre\AppData\Local\Temp\ccV4vh18.s 			page 3


  78              		.cfi_endproc
  79              	.LFE763:
  80              		.size	Y_scaling, .-Y_scaling
  81              		.section	.text.X_scaling,"ax",%progbits
  82              		.align	2
  83              		.global	X_scaling
  84              		.thumb
  85              		.thumb_func
  86              		.type	X_scaling, %function
  87              	X_scaling:
  88              	.LFB764:
  36:waves.c       **** 
  37:waves.c       **** 
  38:waves.c       **** /*******************************************************************************
  39:waves.c       **** Perform X scaling and returnvalue to skip indexes in buffer by
  40:waves.c       **** unscaled = unscaled buffer
  41:waves.c       **** scaled = scaled buffer
  42:waves.c       **** Sx = x scaling
  43:waves.c       **** *******************************************************************************/
  44:waves.c       **** int X_scaling(int Sx) //X has 10 divisions
  45:waves.c       **** {
  89              		.loc 1 45 0
  90              		.cfi_startproc
  91              		@ args = 0, pretend = 0, frame = 8
  92              		@ frame_needed = 0, uses_anonymous_args = 0
  93              		@ link register save eliminated.
  94              	.LVL8:
  95 0000 82B0     		sub	sp, sp, #8
  96              		.cfi_def_cfa_offset 8
  97              	.LVL9:
  46:waves.c       ****     int n = 1;
  47:waves.c       ****     int Px = 32; //Px == 320/10 = 32 pixels per division
  48:waves.c       ****     float pixels_per_ms = (float)Px/ (float)Sx; //pixels per milisecond
  98              		.loc 1 48 0
  99 0002 07EE900A 		vmov	s15, r0	@ int
 100 0006 B8EEE77A 		vcvt.f32.s32	s14, s15
 101 000a DFED146A 		vldr.32	s13, .L18
 102 000e C6EE877A 		vdiv.f32	s15, s13, s14
 103              	.LVL10:
  49:waves.c       ****     float Ps = pixels_per_ms * 4; //pixels per sample point'
 104              		.loc 1 49 0
 105 0012 B1EE007A 		vmov.f32	s14, #4.0e+0
 106 0016 67EE877A 		vmul.f32	s15, s15, s14
 107              	.LVL11:
  50:waves.c       ****     if(Ps < 1) {
 108              		.loc 1 50 0
 109 001a B7EE007A 		vmov.f32	s14, #1.0e+0
 110 001e F4EEC77A 		vcmpe.f32	s15, s14
 111 0022 F1EE10FA 		vmrs	APSR_nzcv, FPSCR
 112 0026 08D5     		bpl	.L15
  51:waves.c       ****         n = (float) 1/ (float)Ps; //plot every n th sample at x = 0, 1, 2, ...
 113              		.loc 1 51 0
 114 0028 F0EE476A 		vmov.f32	s13, s14
 115              	.LVL12:
 116 002c 86EEA77A 		vdiv.f32	s14, s13, s15
 117 0030 FDEEC77A 		vcvt.s32.f32	s15, s14
 118              	.LVL13:
ARM GAS  C:\Users\terre\AppData\Local\Temp\ccV4vh18.s 			page 4


 119 0034 CDED017A 		vstr.32	s15, [sp, #4]	@ int
 120              	.LVL14:
 121 0038 0DE0     		b	.L10
 122              	.LVL15:
 123              	.L15:
  52:waves.c       ****     } else if (Ps > 1) {
 124              		.loc 1 52 0
 125 003a B7EE007A 		vmov.f32	s14, #1.0e+0
 126 003e F4EEC77A 		vcmpe.f32	s15, s14
 127 0042 F1EE10FA 		vmrs	APSR_nzcv, FPSCR
 128 0046 04DD     		ble	.L16
  53:waves.c       ****         n = Ps;
 129              		.loc 1 53 0
 130 0048 FDEEE77A 		vcvt.s32.f32	s15, s15
 131              	.LVL16:
 132 004c CDED017A 		vstr.32	s15, [sp, #4]	@ int
 133              	.LVL17:
 134 0050 01E0     		b	.L10
 135              	.LVL18:
 136              	.L16:
  54:waves.c       ****     }else {
  55:waves.c       ****         n = 1;
 137              		.loc 1 55 0
 138 0052 0123     		movs	r3, #1
 139 0054 0193     		str	r3, [sp, #4]
 140              	.LVL19:
 141              	.L10:
  56:waves.c       ****     }
  57:waves.c       ****     return n;
  58:waves.c       **** }
 142              		.loc 1 58 0
 143 0056 0198     		ldr	r0, [sp, #4]
 144              	.LVL20:
 145 0058 02B0     		add	sp, sp, #8
 146              		.cfi_def_cfa_offset 0
 147              	.LVL21:
 148              		@ sp needed
 149 005a 7047     		bx	lr
 150              	.L19:
 151              		.align	2
 152              	.L18:
 153 005c 00000042 		.word	1107296256
 154              		.cfi_endproc
 155              	.LFE764:
 156              		.size	X_scaling, .-X_scaling
 157              		.section	.text.PWM_conversion,"ax",%progbits
 158              		.align	2
 159              		.global	PWM_conversion
 160              		.thumb
 161              		.thumb_func
 162              		.type	PWM_conversion, %function
 163              	PWM_conversion:
 164              	.LFB765:
  59:waves.c       **** 
  60:waves.c       **** 
  61:waves.c       **** /*******************************************************************************
  62:waves.c       **** Calculate and return offset from potentiometer
ARM GAS  C:\Users\terre\AppData\Local\Temp\ccV4vh18.s 			page 5


  63:waves.c       **** raw = raw ADC value
  64:waves.c       **** converted = raw ADC value converted to PWM range
  65:waves.c       **** *******************************************************************************/
  66:waves.c       **** int PWM_conversion(uint16_t raw) {
 165              		.loc 1 66 0
 166              		.cfi_startproc
 167              		@ args = 0, pretend = 0, frame = 0
 168              		@ frame_needed = 0, uses_anonymous_args = 0
 169              		@ link register save eliminated.
 170              	.LVL22:
  67:waves.c       ****     int compare = raw;
  68:waves.c       ****     compare = compare & 0x7ff; //(0x7ff = 2047) = ADC range
 171              		.loc 1 68 0
 172 0000 C0F30A00 		ubfx	r0, r0, #0, #11
 173              	.LVL23:
  69:waves.c       ****     compare = (compare * 240)/2047; //convert to PWM range
 174              		.loc 1 69 0
 175 0004 C0EB0010 		rsb	r0, r0, r0, lsl #4
 176              	.LVL24:
 177 0008 0301     		lsls	r3, r0, #4
 178 000a 0448     		ldr	r0, .L21
 179 000c 80FB0320 		smull	r2, r0, r0, r3
 180 0010 1844     		add	r0, r0, r3
 181 0012 DB17     		asrs	r3, r3, #31
 182              	.LVL25:
  70:waves.c       ****     return compare;
  71:waves.c       **** }
 183              		.loc 1 71 0
 184 0014 C3EBA020 		rsb	r0, r3, r0, asr #10
 185              	.LVL26:
 186 0018 7047     		bx	lr
 187              	.L22:
 188 001a 00BF     		.align	2
 189              	.L21:
 190 001c 01021080 		.word	-2146434559
 191              		.cfi_endproc
 192              	.LFE765:
 193              		.size	PWM_conversion, .-PWM_conversion
 194              		.section	.text.Trigger_Conversion,"ax",%progbits
 195              		.align	2
 196              		.global	Trigger_Conversion
 197              		.thumb
 198              		.thumb_func
 199              		.type	Trigger_Conversion, %function
 200              	Trigger_Conversion:
 201              	.LFB766:
  72:waves.c       **** 
  73:waves.c       **** 
  74:waves.c       **** /*******************************************************************************
  75:waves.c       **** Calculate and return RAW ADC value to start waveform given trigger level
  76:waves.c       **** trigger level = User inputed trigger level
  77:waves.c       **** *******************************************************************************/
  78:waves.c       **** int Trigger_Conversion(uint16_t trigger_level) {
 202              		.loc 1 78 0
 203              		.cfi_startproc
 204              		@ args = 0, pretend = 0, frame = 0
 205              		@ frame_needed = 0, uses_anonymous_args = 0
ARM GAS  C:\Users\terre\AppData\Local\Temp\ccV4vh18.s 			page 6


 206              		@ link register save eliminated.
 207              	.LVL27:
  79:waves.c       ****     int offset = (240 * (3300 - trigger_level)) / 3300; //accounts for wave being upside down since
 208              		.loc 1 79 0
 209 0000 C0F54E60 		rsb	r0, r0, #3296
 210              	.LVL28:
 211 0004 0430     		adds	r0, r0, #4
 212 0006 C0EB0010 		rsb	r0, r0, r0, lsl #4
 213 000a 0301     		lsls	r3, r0, #4
 214 000c 0348     		ldr	r0, .L24
 215 000e 80FB0320 		smull	r2, r0, r0, r3
 216 0012 1844     		add	r0, r0, r3
 217 0014 DB17     		asrs	r3, r3, #31
 218              	.LVL29:
  80:waves.c       ****     return offset;
  81:waves.c       **** }
 219              		.loc 1 81 0
 220 0016 C3EBE020 		rsb	r0, r3, r0, asr #11
 221              	.LVL30:
 222 001a 7047     		bx	lr
 223              	.L25:
 224              		.align	2
 225              	.L24:
 226 001c EF09E09E 		.word	-1629484561
 227              		.cfi_endproc
 228              	.LFE766:
 229              		.size	Trigger_Conversion, .-Trigger_Conversion
 230              		.section	.text.calc_freq,"ax",%progbits
 231              		.align	2
 232              		.global	calc_freq
 233              		.thumb
 234              		.thumb_func
 235              		.type	calc_freq, %function
 236              	calc_freq:
 237              	.LFB767:
  82:waves.c       **** 
  83:waves.c       **** 
  84:waves.c       **** /*******************************************************************************
  85:waves.c       **** Calculates and returns Frequency 
  86:waves.c       **** draw_buf = draw buffer
  87:waves.c       **** X_scale = X scale value
  88:waves.c       **** *******************************************************************************/
  89:waves.c       **** int calc_freq(uint16_t draw_buf[], int X_scale) {
 238              		.loc 1 89 0
 239              		.cfi_startproc
 240              		@ args = 0, pretend = 0, frame = 0
 241              		@ frame_needed = 0, uses_anonymous_args = 0
 242              	.LVL31:
 243 0000 F8B5     		push	{r3, r4, r5, r6, r7, lr}
 244              		.cfi_def_cfa_offset 24
 245              		.cfi_offset 3, -24
 246              		.cfi_offset 4, -20
 247              		.cfi_offset 5, -16
 248              		.cfi_offset 6, -12
 249              		.cfi_offset 7, -8
 250              		.cfi_offset 14, -4
 251              	.LVL32:
ARM GAS  C:\Users\terre\AppData\Local\Temp\ccV4vh18.s 			page 7


  90:waves.c       ****     bool greater = true; //if a > b
  91:waves.c       ****     int a = draw_buf[0]; //starting point of threshold
 252              		.loc 1 91 0
 253 0002 B0F800E0 		ldrh	lr, [r0]
 254              	.LVL33:
  92:waves.c       ****     int b = draw_buf[3];//ending point of threshold
 255              		.loc 1 92 0
 256 0006 C488     		ldrh	r4, [r0, #6]
 257              	.LVL34:
  93:waves.c       ****     int start = 0; //starting point of period
  94:waves.c       ****     int end = 10000; //end point of period
  95:waves.c       ****     int period = 0; 
  96:waves.c       ****     
  97:waves.c       ****     if(a <= b) { //checks slope for 2 points
 258              		.loc 1 97 0
 259 0008 A645     		cmp	lr, r4
 260 000a 01DD     		ble	.L32
  90:waves.c       ****     int a = draw_buf[0]; //starting point of threshold
 261              		.loc 1 90 0
 262 000c 0125     		movs	r5, #1
 263 000e 00E0     		b	.L27
 264              	.L32:
  98:waves.c       ****         greater = false;
 265              		.loc 1 98 0
 266 0010 0025     		movs	r5, #0
 267              	.L27:
 268              	.LVL35:
 269              	.LBB4:
  99:waves.c       ****     }
 100:waves.c       ****     
 101:waves.c       ****     for(int i = 10; i < 512 - 4; i++) {
 270              		.loc 1 101 0
 271 0012 0A23     		movs	r3, #10
 272              	.LBE4:
  94:waves.c       ****     int period = 0; 
 273              		.loc 1 94 0
 274 0014 42F21077 		movw	r7, #10000
 275              	.LBB5:
 276              		.loc 1 101 0
 277 0018 1EE0     		b	.L28
 278              	.LVL36:
 279              	.L31:
 102:waves.c       ****         if(greater) { //positive slope threshold
 280              		.loc 1 102 0
 281 001a 65B1     		cbz	r5, .L29
 103:waves.c       ****             if(b < draw_buf[i] && draw_buf[i] < a) { //if inside threshold
 282              		.loc 1 103 0
 283 001c 1E46     		mov	r6, r3
 284 001e 30F81320 		ldrh	r2, [r0, r3, lsl #1]
 285 0022 9442     		cmp	r4, r2
 286 0024 17DA     		bge	.L30
 287              		.loc 1 103 0 is_stmt 0 discriminator 1
 288 0026 9645     		cmp	lr, r2
 289 0028 15DD     		ble	.L30
 104:waves.c       ****                 if(draw_buf[i] > draw_buf[i + 4]) { //if positive slope
 290              		.loc 1 104 0 is_stmt 1
 291 002a 0436     		adds	r6, r6, #4
ARM GAS  C:\Users\terre\AppData\Local\Temp\ccV4vh18.s 			page 8


 292 002c 30F81660 		ldrh	r6, [r0, r6, lsl #1]
 293 0030 B242     		cmp	r2, r6
 294 0032 0DD8     		bhi	.L33
 295 0034 0FE0     		b	.L30
 296              	.L29:
 105:waves.c       ****                     end = i;
 106:waves.c       ****                 }
 107:waves.c       ****             }
 108:waves.c       ****         } else { //negative slope threshold
 109:waves.c       ****             if(b >= draw_buf[i] && draw_buf[i] >= a) { //if inside threshold
 297              		.loc 1 109 0
 298 0036 1E46     		mov	r6, r3
 299 0038 30F81320 		ldrh	r2, [r0, r3, lsl #1]
 300 003c 9442     		cmp	r4, r2
 301 003e 0ADB     		blt	.L30
 302              		.loc 1 109 0 is_stmt 0 discriminator 1
 303 0040 9645     		cmp	lr, r2
 304 0042 08DC     		bgt	.L30
 110:waves.c       ****                 if(draw_buf[i] > draw_buf[i + 4]) { //if negative slope
 305              		.loc 1 110 0 is_stmt 1
 306 0044 0436     		adds	r6, r6, #4
 307 0046 30F81660 		ldrh	r6, [r0, r6, lsl #1]
 308 004a B242     		cmp	r2, r6
 309 004c 02D8     		bhi	.L34
 310 004e 02E0     		b	.L30
 311              	.L33:
 105:waves.c       ****                     end = i;
 312              		.loc 1 105 0
 313 0050 1F46     		mov	r7, r3
 314              	.LVL37:
 315 0052 00E0     		b	.L30
 316              	.LVL38:
 317              	.L34:
 111:waves.c       ****                     end = i;
 318              		.loc 1 111 0
 319 0054 1F46     		mov	r7, r3
 320              	.LVL39:
 321              	.L30:
 101:waves.c       ****         if(greater) { //positive slope threshold
 322              		.loc 1 101 0 discriminator 2
 323 0056 0133     		adds	r3, r3, #1
 324              	.LVL40:
 325              	.L28:
 101:waves.c       ****         if(greater) { //positive slope threshold
 326              		.loc 1 101 0 is_stmt 0 discriminator 1
 327 0058 B3F5FE7F 		cmp	r3, #508
 328 005c DDDB     		blt	.L31
 329              	.LBE5:
 112:waves.c       ****                 }
 113:waves.c       ****             }
 114:waves.c       ****         }
 115:waves.c       ****     }
 116:waves.c       ****     period = (end - start) * X_scaling(X_scale);
 330              		.loc 1 116 0 is_stmt 1
 331 005e 0846     		mov	r0, r1
 332              	.LVL41:
 333 0060 FFF7FEFF 		bl	X_scaling
ARM GAS  C:\Users\terre\AppData\Local\Temp\ccV4vh18.s 			page 9


 334              	.LVL42:
 335 0064 00FB07F0 		mul	r0, r0, r7
 336              	.LVL43:
 117:waves.c       ****     return 1000000/period; //return frequency (1000000 = 250000 * 4)
 118:waves.c       **** }
 337              		.loc 1 118 0
 338 0068 014B     		ldr	r3, .L36
 339 006a 93FBF0F0 		sdiv	r0, r3, r0
 340              	.LVL44:
 341 006e F8BD     		pop	{r3, r4, r5, r6, r7, pc}
 342              	.LVL45:
 343              	.L37:
 344              		.align	2
 345              	.L36:
 346 0070 40420F00 		.word	1000000
 347              		.cfi_endproc
 348              	.LFE767:
 349              		.size	calc_freq, .-calc_freq
 350              		.section	.text.trig_buf_fill,"ax",%progbits
 351              		.align	2
 352              		.global	trig_buf_fill
 353              		.thumb
 354              		.thumb_func
 355              		.type	trig_buf_fill, %function
 356              	trig_buf_fill:
 357              	.LFB768:
 119:waves.c       **** 
 120:waves.c       **** 
 121:waves.c       **** 
 122:waves.c       **** /*******************************************************************************
 123:waves.c       **** Fills a buffer with coordinates for stopped waveform at a trigger level
 124:waves.c       **** untriggered[] = Y scaled draw buffer
 125:waves.c       **** triggered[] = new draw buffer with coordinates to fit triggered level
 126:waves.c       **** level = trigger level
 127:waves.c       **** Sy = Y scaling
 128:waves.c       **** *******************************************************************************/
 129:waves.c       **** void trig_buf_fill(uint16_t untriggered[], uint16_t triggered[], int level, int Sy) {
 358              		.loc 1 129 0
 359              		.cfi_startproc
 360              		@ args = 0, pretend = 0, frame = 0
 361              		@ frame_needed = 0, uses_anonymous_args = 0
 362              		@ link register save eliminated.
 363              	.LVL46:
 364 0000 70B4     		push	{r4, r5, r6}
 365              		.cfi_def_cfa_offset 12
 366              		.cfi_offset 4, -12
 367              		.cfi_offset 5, -8
 368              		.cfi_offset 6, -4
 369              	.LVL47:
 130:waves.c       ****     int start = 0; //index to start iterating through to get triggered buffer
 131:waves.c       ****     int adjusted = (level * 4096) / 3300; //convert to Raw ADC value
 370              		.loc 1 131 0
 371 0002 1203     		lsls	r2, r2, #12
 372              	.LVL48:
 373 0004 154E     		ldr	r6, .L48
 374 0006 86FB0246 		smull	r4, r6, r6, r2
 375 000a 1644     		add	r6, r6, r2
ARM GAS  C:\Users\terre\AppData\Local\Temp\ccV4vh18.s 			page 10


 376 000c D217     		asrs	r2, r2, #31
 377 000e C2EBE626 		rsb	r6, r2, r6, asr #11
 378              	.LVL49:
 132:waves.c       ****     int ylev = (30 * 3300 * adjusted) / (2048 * Sy); //Y scale
 379              		.loc 1 132 0
 380 0012 134A     		ldr	r2, .L48+4
 381 0014 02FB06F2 		mul	r2, r2, r6
 382 0018 DB02     		lsls	r3, r3, #11
 383              	.LVL50:
 384 001a 92FBF3F6 		sdiv	r6, r2, r3
 385              	.LVL51:
 386              	.LBB6:
 133:waves.c       ****     for(int i = 0; i < 512; i++) {
 387              		.loc 1 133 0
 388 001e 0022     		movs	r2, #0
 389              	.LBE6:
 130:waves.c       ****     int start = 0; //index to start iterating through to get triggered buffer
 390              		.loc 1 130 0
 391 0020 1346     		mov	r3, r2
 392              	.LBB7:
 393              		.loc 1 133 0
 394 0022 06E0     		b	.L39
 395              	.LVL52:
 396              	.L41:
 134:waves.c       ****         if( untriggered[i] == ylev - 5 ) { //if the Y coordinate is at trigger level (5 is just to 
 397              		.loc 1 134 0
 398 0024 30F81250 		ldrh	r5, [r0, r2, lsl #1]
 399 0028 741F     		subs	r4, r6, #5
 400 002a A542     		cmp	r5, r4
 401 002c 00D1     		bne	.L40
 135:waves.c       ****             start = i; //get index
 402              		.loc 1 135 0
 403 002e 1346     		mov	r3, r2
 404              	.LVL53:
 405              	.L40:
 133:waves.c       ****     for(int i = 0; i < 512; i++) {
 406              		.loc 1 133 0 discriminator 2
 407 0030 0132     		adds	r2, r2, #1
 408              	.LVL54:
 409              	.L39:
 133:waves.c       ****     for(int i = 0; i < 512; i++) {
 410              		.loc 1 133 0 is_stmt 0 discriminator 1
 411 0032 B2F5007F 		cmp	r2, #512
 412 0036 F5DB     		blt	.L41
 413 0038 0022     		movs	r2, #0
 414              	.LVL55:
 415 003a 0AE0     		b	.L42
 416              	.LVL56:
 417              	.L44:
 418              	.LBE7:
 419              	.LBB8:
 136:waves.c       ****         }
 137:waves.c       ****     }
 138:waves.c       ****     for(int i = 0; i < 320; i++) { //fill buffer with triggered coordinates
 139:waves.c       ****         if(start >= 512) { //just here for now to make sure it doesn't go out of bounds until I can
 420              		.loc 1 139 0 is_stmt 1
 421 003c B3F5007F 		cmp	r3, #512
ARM GAS  C:\Users\terre\AppData\Local\Temp\ccV4vh18.s 			page 11


 422 0040 01DB     		blt	.L43
 140:waves.c       ****             start = 360; //seems to draw most even waveform   
 423              		.loc 1 140 0
 424 0042 4FF4B473 		mov	r3, #360
 425              	.LVL57:
 426              	.L43:
 141:waves.c       ****             //break;
 142:waves.c       ****         }
 143:waves.c       ****         triggered[i] = untriggered[start];
 427              		.loc 1 143 0 discriminator 2
 428 0046 30F81340 		ldrh	r4, [r0, r3, lsl #1]
 429 004a 21F81240 		strh	r4, [r1, r2, lsl #1]	@ movhi
 144:waves.c       ****         start++;
 430              		.loc 1 144 0 discriminator 2
 431 004e 0133     		adds	r3, r3, #1
 432              	.LVL58:
 138:waves.c       ****         if(start >= 512) { //just here for now to make sure it doesn't go out of bounds until I can
 433              		.loc 1 138 0 discriminator 2
 434 0050 0132     		adds	r2, r2, #1
 435              	.LVL59:
 436              	.L42:
 138:waves.c       ****         if(start >= 512) { //just here for now to make sure it doesn't go out of bounds until I can
 437              		.loc 1 138 0 is_stmt 0 discriminator 1
 438 0052 B2F5A07F 		cmp	r2, #320
 439 0056 F1DB     		blt	.L44
 440              	.LBE8:
 145:waves.c       ****     }
 146:waves.c       **** }
 441              		.loc 1 146 0 is_stmt 1
 442 0058 70BC     		pop	{r4, r5, r6}
 443              		.cfi_restore 6
 444              		.cfi_restore 5
 445              		.cfi_restore 4
 446              		.cfi_def_cfa_offset 0
 447              	.LVL60:
 448 005a 7047     		bx	lr
 449              	.L49:
 450              		.align	2
 451              	.L48:
 452 005c EF09E09E 		.word	-1629484561
 453 0060 B8820100 		.word	99000
 454              		.cfi_endproc
 455              	.LFE768:
 456              		.size	trig_buf_fill, .-trig_buf_fill
 457              		.section	.text.draw_wave_line,"ax",%progbits
 458              		.align	2
 459              		.global	draw_wave_line
 460              		.thumb
 461              		.thumb_func
 462              		.type	draw_wave_line, %function
 463              	draw_wave_line:
 464              	.LFB769:
 147:waves.c       **** 
 148:waves.c       **** 
 149:waves.c       **** /*******************************************************************************
 150:waves.c       **** Draws wave and erases old one
 151:waves.c       **** x = start x coordinate
ARM GAS  C:\Users\terre\AppData\Local\Temp\ccV4vh18.s 			page 12


 152:waves.c       **** curr[] = current draw buffer
 153:waves.c       **** old[] = old buffer
 154:waves.c       **** pot = potentiometer offset
 155:waves.c       **** color = color of the line
 156:waves.c       **** *******************************************************************************/
 157:waves.c       **** void draw_wave_line(int x, uint16_t curr[], uint16_t old[], int pot, int color) {
 465              		.loc 1 157 0
 466              		.cfi_startproc
 467              		@ args = 4, pretend = 0, frame = 0
 468              		@ frame_needed = 0, uses_anonymous_args = 0
 469              	.LVL61:
 470 0000 2DE9F041 		push	{r4, r5, r6, r7, r8, lr}
 471              		.cfi_def_cfa_offset 24
 472              		.cfi_offset 4, -24
 473              		.cfi_offset 5, -20
 474              		.cfi_offset 6, -16
 475              		.cfi_offset 7, -12
 476              		.cfi_offset 8, -8
 477              		.cfi_offset 14, -4
 478 0004 0446     		mov	r4, r0
 479 0006 8846     		mov	r8, r1
 480 0008 1746     		mov	r7, r2
 481 000a 1D46     		mov	r5, r3
 158:waves.c       ****     GUI_SetColor(GUI_DARKCYAN); //erases old waveform
 482              		.loc 1 158 0
 483 000c 0F48     		ldr	r0, .L52
 484              	.LVL62:
 485 000e FFF7FEFF 		bl	GUI_SetColor
 486              	.LVL63:
 159:waves.c       ****     GUI_DrawLine(x, old[x], x + 1, old[x + 1]); //(x1, y1, x2, y2)
 487              		.loc 1 159 0
 488 0012 661C     		adds	r6, r4, #1
 489 0014 37F81630 		ldrh	r3, [r7, r6, lsl #1]
 490 0018 3246     		mov	r2, r6
 491 001a 37F81410 		ldrh	r1, [r7, r4, lsl #1]
 492 001e 2046     		mov	r0, r4
 493 0020 FFF7FEFF 		bl	GUI_DrawLine
 494              	.LVL64:
 160:waves.c       ****     GUI_SetColor(color); //draws new waveform
 495              		.loc 1 160 0
 496 0024 0698     		ldr	r0, [sp, #24]
 497 0026 FFF7FEFF 		bl	GUI_SetColor
 498              	.LVL65:
 161:waves.c       ****     GUI_DrawLine(x, curr[x] + pot, x + 1, curr[x + 1] + pot); //(x1, y1, x2, y2)
 499              		.loc 1 161 0
 500 002a 38F81410 		ldrh	r1, [r8, r4, lsl #1]
 501 002e 38F81630 		ldrh	r3, [r8, r6, lsl #1]
 502 0032 2B44     		add	r3, r3, r5
 503 0034 3246     		mov	r2, r6
 504 0036 2944     		add	r1, r1, r5
 505 0038 2046     		mov	r0, r4
 506 003a FFF7FEFF 		bl	GUI_DrawLine
 507              	.LVL66:
 162:waves.c       ****     
 163:waves.c       ****     old[x] = curr[x] + pot; //gets old waveform coordinates
 508              		.loc 1 163 0
 509 003e 38F81430 		ldrh	r3, [r8, r4, lsl #1]
ARM GAS  C:\Users\terre\AppData\Local\Temp\ccV4vh18.s 			page 13


 510 0042 1D44     		add	r5, r5, r3
 511              	.LVL67:
 512 0044 27F81450 		strh	r5, [r7, r4, lsl #1]	@ movhi
 513 0048 BDE8F081 		pop	{r4, r5, r6, r7, r8, pc}
 514              	.LVL68:
 515              	.L53:
 516              		.align	2
 517              	.L52:
 518 004c 00808000 		.word	8421376
 519              		.cfi_endproc
 520              	.LFE769:
 521              		.size	draw_wave_line, .-draw_wave_line
 522              		.text
 523              	.Letext0:
 524              		.file 2 "c:\\program files (x86)\\cypress\\psoc creator\\4.4\\psoc creator\\import\\gnu\\arm\\5.4.
 525              		.file 3 "c:\\program files (x86)\\cypress\\psoc creator\\4.4\\psoc creator\\import\\gnu\\arm\\5.4.
 526              		.file 4 "Generated_Source\\PSoC6\\pdl\\drivers/peripheral/device/cy_device.h"
 527              		.file 5 "Generated_Source\\PSoC6\\pdl\\drivers/peripheral/sar/cy_sar.h"
 528              		.file 6 "Generated_Source\\PSoC6\\pdl\\drivers/peripheral/scb/cy_scb_uart.h"
 529              		.file 7 "Generated_Source\\PSoC6\\pdl\\drivers/peripheral/tcpwm/cy_tcpwm_pwm.h"
 530              		.file 8 "Generated_Source\\PSoC6/ADC_1.h"
 531              		.file 9 "Generated_Source\\PSoC6\\pdl\\cmsis/include/core_cm4.h"
 532              		.file 10 "Generated_Source\\PSoC6/UART_printf.h"
 533              		.file 11 "Generated_Source\\PSoC6/PWM_1.h"
 534              		.file 12 "Generated_Source\\PSoC6\\pdl\\middleware/emWin/code/include/GUI.h"